

Microchip MPLAB XC8 Assembler V2.45 build 20230818022343 
                                                                                               Thu Sep 21 19:07:33 2023

Microchip MPLAB XC8 C Compiler v2.45 (Free license) build 20230818022343 Og1 
     1                           	processor	18F4620
     2                           	fnconf	rparam,??,?,0
     3                           	pagewidth 120
     4                           	opt	flic
     5                           	psect	idataCOMRAM,global,class=CODE,delta=1,noexec
     6                           	psect	nvCOMRAM,global,class=COMRAM,space=1,delta=1,lowdata,noexec
     7                           	psect	cinit,global,reloc=2,class=CODE,delta=1
     8                           	psect	dataCOMRAM,global,class=COMRAM,space=1,delta=1,lowdata,noexec
     9                           	psect	cstackCOMRAM,global,class=COMRAM,space=1,delta=1,lowdata,noexec
    10                           	psect	text0,global,reloc=2,class=CODE,delta=1
    11                           	psect	text1,global,reloc=2,class=CODE,delta=1
    12                           	psect	text2,global,reloc=2,class=CODE,delta=1
    13                           	psect	text3,global,reloc=2,class=CODE,delta=1
    14                           	psect	text4,global,reloc=2,class=CODE,delta=1
    15                           	psect	smallconst,global,reloc=2,class=SMALLCONST,delta=1,noexec
    16                           	psect	intsave_regs,global,class=BIGRAM,space=1,delta=1,noexec
    17                           	psect	rparam,global,class=COMRAM,space=1,delta=1,noexec
    18                           	psect	config,global,abs,ovrld,class=CONFIG,space=4,delta=1,noexec
    19   000000                     
    20                           ; Generated 23/03/2023 GMT
    21                           ; 
    22                           ; Copyright © 2023, Microchip Technology Inc. and its subsidiaries ("Microchip")
    23                           ; All rights reserved.
    24                           ; 
    25                           ; This software is developed by Microchip Technology Inc. and its subsidiaries ("Microch
      +                          ip").
    26                           ; 
    27                           ; Redistribution and use in source and binary forms, with or without modification, are
    28                           ; permitted provided that the following conditions are met:
    29                           ; 
    30                           ;     1. Redistributions of source code must retain the above copyright notice, this lis
      +                          t of
    31                           ;        conditions and the following disclaimer.
    32                           ; 
    33                           ;     2. Redistributions in binary form must reproduce the above copyright notice, this 
      +                          list
    34                           ;        of conditions and the following disclaimer in the documentation and/or other
    35                           ;        materials provided with the distribution. Publication is not required when
    36                           ;        this file is used in an embedded application.
    37                           ; 
    38                           ;     3. Microchip's name may not be used to endorse or promote products derived from th
      +                          is
    39                           ;        software without specific prior written permission.
    40                           ; 
    41                           ; THIS SOFTWARE IS PROVIDED BY MICROCHIP "AS IS" AND ANY EXPRESS OR IMPLIED WARRANTIES,
    42                           ; INCLUDING, BUT NOT LIMITED TO, THE IMPLIED WARRANTIES OF MERCHANTABILITY AND FITNESS F
      +                          OR
    43                           ; PURPOSE ARE DISCLAIMED.  IN NO EVENT SHALL MICROCHIP BE LIABLE FOR ANY DIRECT, INDIREC
      +                          T,
    44                           ; INCIDENTAL, SPECIAL, EXEMPLARY, OR CONSEQUENTIAL DAMAGES (INCLUDING BUT NOT LIMITED TO
    45                           ; PROCUREMENT OF SUBSTITUTE GOODS OR SERVICES; LOSS OF USE, DATA OR PROFITS; OR BUSINESS
    46                           ; INTERRUPTION) HOWSOEVER CAUSED AND ON ANY THEORY OF LIABILITY, WHETHER IN CONTRACT, ST
      +                          RICT
    47                           ; LIABILITY, OR TORT (INCLUDING NEGLIGENCE OR OTHERWISE) ARISING IN ANY WAY OUT OF THE U
      +                          SE OF
    48                           ; THIS SOFTWARE, EVEN IF ADVISED OF THE POSSIBILITY OF SUCH DAMAGE.
    49                           ; 
    50                           ; 
    51                           ; Code-generator required, PIC18F4620 Definitions
    52                           ; 
    53                           ; SFR Addresses
    54   000000                     
    55                           	psect	idataCOMRAM
    56   001990                     __pidataCOMRAM:
    57                           	callstack 0
    58                           
    59                           ;initializer for _port_registers
    60   001990  80                 	db	128
    61   001991  0F                 	db	15
    62   001992  81                 	db	129
    63   001993  0F                 	db	15
    64   001994  82                 	db	130
    65   001995  0F                 	db	15
    66   001996  83                 	db	131
    67   001997  0F                 	db	15
    68   001998  84                 	db	132
    69   001999  0F                 	db	15
    70                           
    71                           ;initializer for _lat_registers
    72   00199A  89                 	db	137
    73   00199B  0F                 	db	15
    74   00199C  8A                 	db	138
    75   00199D  0F                 	db	15
    76   00199E  8B                 	db	139
    77   00199F  0F                 	db	15
    78   0019A0  8C                 	db	140
    79   0019A1  0F                 	db	15
    80   0019A2  8D                 	db	141
    81   0019A3  0F                 	db	15
    82                           
    83                           ;initializer for _tris_registers
    84   0019A4  92                 	db	146
    85   0019A5  0F                 	db	15
    86   0019A6  93                 	db	147
    87   0019A7  0F                 	db	15
    88   0019A8  94                 	db	148
    89   0019A9  0F                 	db	15
    90   0019AA  95                 	db	149
    91   0019AB  0F                 	db	15
    92   0019AC  96                 	db	150
    93   0019AD  0F                 	db	15
    94                           
    95                           ;initializer for _led_16
    96   0019AE  39                 	db	57
    97                           
    98                           ;initializer for _led_15
    99   0019AF  31                 	db	49
   100                           
   101                           ;initializer for _led_14
   102   0019B0  29                 	db	41
   103                           
   104                           ;initializer for _led_13
   105   0019B1  21                 	db	33
   106                           
   107                           ;initializer for _led_12
   108   0019B2  19                 	db	25
   109                           
   110                           ;initializer for _led_11
   111   0019B3  11                 	db	17
   112                           
   113                           ;initializer for _led_10
   114   0019B4  09                 	db	9
   115                           
   116                           ;initializer for _led_9
   117   0019B5  01                 	db	1
   118                           
   119                           ;initializer for _led_8
   120   0019B6  3B                 	db	59
   121                           
   122                           ;initializer for _led_7
   123   0019B7  33                 	db	51
   124                           
   125                           ;initializer for _led_6
   126   0019B8  2B                 	db	43
   127                           
   128                           ;initializer for _led_5
   129   0019B9  23                 	db	35
   130                           
   131                           ;initializer for _led_4
   132   0019BA  1B                 	db	27
   133                           
   134                           ;initializer for _led_3
   135   0019BB  13                 	db	19
   136                           
   137                           ;initializer for _led_2
   138   0019BC  0B                 	db	11
   139                           
   140                           ;initializer for _led_1
   141   0019BD  03                 	db	3
   142                           
   143                           	psect	nvCOMRAM
   144   00003B                     __pnvCOMRAM:
   145                           	callstack 0
   146   00003B                     _ret:
   147                           	callstack 0
   148   00003B                     	ds	1
   149   000000                     _PORTE	set	3972
   150   000000                     _PORTD	set	3971
   151   000000                     _PORTC	set	3970
   152   000000                     _PORTB	set	3969
   153   000000                     _PORTA	set	3968
   154   000000                     _LATA	set	3977
   155   000000                     _TRISA	set	3986
   156   000000                     _TRISE	set	3990
   157   000000                     _TRISD	set	3989
   158   000000                     _TRISC	set	3988
   159   000000                     _TRISB	set	3987
   160   000000                     _LATE	set	3981
   161   000000                     _LATD	set	3980
   162   000000                     _LATC	set	3979
   163   000000                     _LATB	set	3978
   164                           
   165                           ; #config settings
   166                           
   167                           	psect	cinit
   168   0019BE                     __pcinit:
   169                           	callstack 0
   170   0019BE                     start_initialization:
   171                           	callstack 0
   172   0019BE                     __initialization:
   173                           	callstack 0
   174                           
   175                           ; Initialize objects allocated to COMRAM (46 bytes)
   176                           ; load TBLPTR registers with __pidataCOMRAM
   177   0019BE  0E90               	movlw	low __pidataCOMRAM
   178   0019C0  6EF6               	movwf	tblptrl,c
   179   0019C2  0E19               	movlw	high __pidataCOMRAM
   180   0019C4  6EF7               	movwf	tblptrh,c
   181   0019C6  0E00               	movlw	low (__pidataCOMRAM shr (0+16))
   182   0019C8  6EF8               	movwf	tblptru,c
   183   0019CA  EE00  F001         	lfsr	0,__pdataCOMRAM
   184   0019CE  EE10 F02E          	lfsr	1,46
   185   0019D2                     copy_data0:
   186   0019D2  0009               	tblrd		*+
   187   0019D4  CFF5 FFEE          	movff	tablat,postinc0
   188   0019D8  50E5               	movf	postdec1,w,c
   189   0019DA  50E1               	movf	fsr1l,w,c
   190   0019DC  E1FA               	bnz	copy_data0
   191   0019DE                     end_of_initialization:
   192                           	callstack 0
   193   0019DE                     __end_of__initialization:
   194                           	callstack 0
   195   0019DE  0E00               	movlw	low (__Lmediumconst shr (0+16))
   196   0019E0  6EF8               	movwf	tblptru,c
   197   0019E2  0100               	movlb	0
   198   0019E4  EF01  F008         	goto	_main	;jump to C main() function
   199                           
   200                           	psect	dataCOMRAM
   201   000001                     __pdataCOMRAM:
   202                           	callstack 0
   203   000001                     _port_registers:
   204                           	callstack 0
   205   000001                     	ds	10
   206   00000B                     _lat_registers:
   207                           	callstack 0
   208   00000B                     	ds	10
   209   000015                     _tris_registers:
   210                           	callstack 0
   211   000015                     	ds	10
   212   00001F                     _led_16:
   213                           	callstack 0
   214   00001F                     	ds	1
   215   000020                     _led_15:
   216                           	callstack 0
   217   000020                     	ds	1
   218   000021                     _led_14:
   219                           	callstack 0
   220   000021                     	ds	1
   221   000022                     _led_13:
   222                           	callstack 0
   223   000022                     	ds	1
   224   000023                     _led_12:
   225                           	callstack 0
   226   000023                     	ds	1
   227   000024                     _led_11:
   228                           	callstack 0
   229   000024                     	ds	1
   230   000025                     _led_10:
   231                           	callstack 0
   232   000025                     	ds	1
   233   000026                     _led_9:
   234                           	callstack 0
   235   000026                     	ds	1
   236   000027                     _led_8:
   237                           	callstack 0
   238   000027                     	ds	1
   239   000028                     _led_7:
   240                           	callstack 0
   241   000028                     	ds	1
   242   000029                     _led_6:
   243                           	callstack 0
   244   000029                     	ds	1
   245   00002A                     _led_5:
   246                           	callstack 0
   247   00002A                     	ds	1
   248   00002B                     _led_4:
   249                           	callstack 0
   250   00002B                     	ds	1
   251   00002C                     _led_3:
   252                           	callstack 0
   253   00002C                     	ds	1
   254   00002D                     _led_2:
   255                           	callstack 0
   256   00002D                     	ds	1
   257   00002E                     _led_1:
   258                           	callstack 0
   259   00002E                     	ds	1
   260                           
   261                           	psect	cstackCOMRAM
   262   00002F                     __pcstackCOMRAM:
   263                           	callstack 0
   264   00002F                     gpio_pin_direction_intialize@_pin_config:
   265                           	callstack 0
   266   00002F                     gpio_pin_write_logic@_pin_config:
   267                           	callstack 0
   268                           
   269                           ; 1 bytes @ 0x0
   270   00002F                     	ds	1
   271   000030                     ??_gpio_pin_direction_intialize:
   272   000030                     gpio_pin_write_logic@logic:
   273                           	callstack 0
   274                           
   275                           ; 1 bytes @ 0x1
   276   000030                     	ds	1
   277   000031                     ??_gpio_pin_write_logic:
   278                           
   279                           ; 1 bytes @ 0x2
   280   000031                     	ds	5
   281   000036                     gpio_pin_intialize@_pin_config:
   282                           	callstack 0
   283                           
   284                           ; 1 bytes @ 0x7
   285   000036                     	ds	1
   286   000037                     ??_gpio_pin_intialize:
   287                           
   288                           ; 1 bytes @ 0x8
   289   000037                     	ds	1
   290   000038                     gpio_pin_intialize@ret:
   291                           	callstack 0
   292                           
   293                           ; 1 bytes @ 0x9
   294   000038                     	ds	1
   295   000039                     ??_main:
   296                           
   297                           ; 1 bytes @ 0xA
   298   000039                     	ds	2
   299                           
   300 ;;
   301 ;;Main: autosize = 0, tempsize = 2, incstack = 0, save=0
   302 ;;
   303 ;; *************** function _main *****************
   304 ;; Defined at:
   305 ;;		line 133 in file "application.c"
   306 ;; Parameters:    Size  Location     Type
   307 ;;		None
   308 ;; Auto vars:     Size  Location     Type
   309 ;;		None
   310 ;; Return value:  Size  Location     Type
   311 ;;                  2  159[None  ] int 
   312 ;; Registers used:
   313 ;;		wreg, fsr2l, fsr2h, status,2, status,0, prodl, prodh, cstack
   314 ;; Tracked objects:
   315 ;;		On entry : 0/0
   316 ;;		On exit  : 0/0
   317 ;;		Unchanged: 0/0
   318 ;; Data sizes:     COMRAM   BANK0   BANK1   BANK2   BANK3   BANK4   BANK5   BANK6   BANK7   BANK8   BANK9  BANK10  BANK1
      +1  BANK12  BANK13  BANK14  BANK15
   319 ;;      Params:         0       0       0       0       0       0       0       0       0       0       0       0       
      +0       0       0       0       0
   320 ;;      Locals:         0       0       0       0       0       0       0       0       0       0       0       0       
      +0       0       0       0       0
   321 ;;      Temps:          2       0       0       0       0       0       0       0       0       0       0       0       
      +0       0       0       0       0
   322 ;;      Totals:         2       0       0       0       0       0       0       0       0       0       0       0       
      +0       0       0       0       0
   323 ;;Total ram usage:        2 bytes
   324 ;; Hardware stack levels required when called: 3
   325 ;; This function calls:
   326 ;;		_application_intialize
   327 ;;		_gpio_pin_write_logic
   328 ;; This function is called by:
   329 ;;		Startup code after reset
   330 ;; This function uses a non-reentrant model
   331 ;;
   332                           
   333                           	psect	text0
   334   001002                     __ptext0:
   335                           	callstack 0
   336   001002                     _main:
   337                           	callstack 28
   338   001002                     
   339                           ;application.c: 135:     application_intialize();
   340   001002  EC48  F00C         	call	_application_intialize	;wreg free
   341   001006                     l160:
   342                           
   343                           ;application.c: 138:     {;application.c: 139:                    gpio_pin_write_logic(&
      +                          led_8,GPIO_LOW);
   344   001006  0E27               	movlw	low _led_8
   345   001008  6E2F               	movwf	gpio_pin_write_logic@_pin_config^0,c
   346   00100A  0E00               	movlw	0
   347   00100C  6E30               	movwf	gpio_pin_write_logic@logic^0,c
   348   00100E  ECC5  F00B         	call	_gpio_pin_write_logic	;wreg free
   349                           
   350                           ;application.c: 140:                    gpio_pin_write_logic(&led_16,GPIO_LOW);
   351   001012  0E1F               	movlw	low _led_16
   352   001014  6E2F               	movwf	gpio_pin_write_logic@_pin_config^0,c
   353   001016  0E00               	movlw	0
   354   001018  6E30               	movwf	gpio_pin_write_logic@logic^0,c
   355   00101A  ECC5  F00B         	call	_gpio_pin_write_logic	;wreg free
   356                           
   357                           ;application.c: 141:                    gpio_pin_write_logic(&led_1,GPIO_HIGH);
   358   00101E  0E2E               	movlw	low _led_1
   359   001020  6E2F               	movwf	gpio_pin_write_logic@_pin_config^0,c
   360   001022  0E01               	movlw	1
   361   001024  6E30               	movwf	gpio_pin_write_logic@logic^0,c
   362   001026  ECC5  F00B         	call	_gpio_pin_write_logic	;wreg free
   363                           
   364                           ;application.c: 142:                    gpio_pin_write_logic(&led_9,GPIO_HIGH);
   365   00102A  0E26               	movlw	low _led_9
   366   00102C  6E2F               	movwf	gpio_pin_write_logic@_pin_config^0,c
   367   00102E  0E01               	movlw	1
   368   001030  6E30               	movwf	gpio_pin_write_logic@logic^0,c
   369   001032  ECC5  F00B         	call	_gpio_pin_write_logic	;wreg free
   370   001036                     
   371                           ;application.c: 143:                    _delay((unsigned long)((500)*(4000000UL/4000.0))
      +                          );
   372   001036  0E03               	movlw	3
   373   001038  6E3A               	movwf	(??_main+1)^0,c
   374   00103A  0E8A               	movlw	138
   375   00103C  6E39               	movwf	??_main^0,c
   376   00103E  0E56               	movlw	86
   377   001040                     u437:
   378   001040  2EE8               	decfsz	wreg,f,c
   379   001042  D7FE               	bra	u437
   380   001044  2E39               	decfsz	??_main^0,f,c
   381   001046  D7FC               	bra	u437
   382   001048  2E3A               	decfsz	(??_main+1)^0,f,c
   383   00104A  D7FA               	bra	u437
   384   00104C                     
   385                           ;application.c: 144:                    gpio_pin_write_logic(&led_1,GPIO_LOW);
   386   00104C  0E2E               	movlw	low _led_1
   387   00104E  6E2F               	movwf	gpio_pin_write_logic@_pin_config^0,c
   388   001050  0E00               	movlw	0
   389   001052  6E30               	movwf	gpio_pin_write_logic@logic^0,c
   390   001054  ECC5  F00B         	call	_gpio_pin_write_logic	;wreg free
   391   001058                     
   392                           ;application.c: 145:                    gpio_pin_write_logic(&led_9,GPIO_LOW);
   393   001058  0E26               	movlw	low _led_9
   394   00105A  6E2F               	movwf	gpio_pin_write_logic@_pin_config^0,c
   395   00105C  0E00               	movlw	0
   396   00105E  6E30               	movwf	gpio_pin_write_logic@logic^0,c
   397   001060  ECC5  F00B         	call	_gpio_pin_write_logic	;wreg free
   398   001064                     
   399                           ;application.c: 146:                    gpio_pin_write_logic(&led_2,GPIO_HIGH);
   400   001064  0E2D               	movlw	low _led_2
   401   001066  6E2F               	movwf	gpio_pin_write_logic@_pin_config^0,c
   402   001068  0E01               	movlw	1
   403   00106A  6E30               	movwf	gpio_pin_write_logic@logic^0,c
   404   00106C  ECC5  F00B         	call	_gpio_pin_write_logic	;wreg free
   405   001070                     
   406                           ;application.c: 147:                    gpio_pin_write_logic(&led_10,GPIO_HIGH);
   407   001070  0E25               	movlw	low _led_10
   408   001072  6E2F               	movwf	gpio_pin_write_logic@_pin_config^0,c
   409   001074  0E01               	movlw	1
   410   001076  6E30               	movwf	gpio_pin_write_logic@logic^0,c
   411   001078  ECC5  F00B         	call	_gpio_pin_write_logic	;wreg free
   412   00107C                     
   413                           ;application.c: 148:                    _delay((unsigned long)((500)*(4000000UL/4000.0))
      +                          );
   414   00107C  0E03               	movlw	3
   415   00107E  6E3A               	movwf	(??_main+1)^0,c
   416   001080  0E8A               	movlw	138
   417   001082  6E39               	movwf	??_main^0,c
   418   001084  0E56               	movlw	86
   419   001086                     u447:
   420   001086  2EE8               	decfsz	wreg,f,c
   421   001088  D7FE               	bra	u447
   422   00108A  2E39               	decfsz	??_main^0,f,c
   423   00108C  D7FC               	bra	u447
   424   00108E  2E3A               	decfsz	(??_main+1)^0,f,c
   425   001090  D7FA               	bra	u447
   426                           
   427                           ;application.c: 149:                    gpio_pin_write_logic(&led_2,GPIO_LOW);
   428   001092  0E2D               	movlw	low _led_2
   429   001094  6E2F               	movwf	gpio_pin_write_logic@_pin_config^0,c
   430   001096  0E00               	movlw	0
   431   001098  6E30               	movwf	gpio_pin_write_logic@logic^0,c
   432   00109A  ECC5  F00B         	call	_gpio_pin_write_logic	;wreg free
   433                           
   434                           ;application.c: 150:                    gpio_pin_write_logic(&led_10,GPIO_LOW);
   435   00109E  0E25               	movlw	low _led_10
   436   0010A0  6E2F               	movwf	gpio_pin_write_logic@_pin_config^0,c
   437   0010A2  0E00               	movlw	0
   438   0010A4  6E30               	movwf	gpio_pin_write_logic@logic^0,c
   439   0010A6  ECC5  F00B         	call	_gpio_pin_write_logic	;wreg free
   440                           
   441                           ;application.c: 151:                    gpio_pin_write_logic(&led_3,GPIO_HIGH);
   442   0010AA  0E2C               	movlw	low _led_3
   443   0010AC  6E2F               	movwf	gpio_pin_write_logic@_pin_config^0,c
   444   0010AE  0E01               	movlw	1
   445   0010B0  6E30               	movwf	gpio_pin_write_logic@logic^0,c
   446   0010B2  ECC5  F00B         	call	_gpio_pin_write_logic	;wreg free
   447                           
   448                           ;application.c: 152:                    gpio_pin_write_logic(&led_11,GPIO_HIGH);
   449   0010B6  0E24               	movlw	low _led_11
   450   0010B8  6E2F               	movwf	gpio_pin_write_logic@_pin_config^0,c
   451   0010BA  0E01               	movlw	1
   452   0010BC  6E30               	movwf	gpio_pin_write_logic@logic^0,c
   453   0010BE  ECC5  F00B         	call	_gpio_pin_write_logic	;wreg free
   454   0010C2                     
   455                           ;application.c: 153:                    _delay((unsigned long)((500)*(4000000UL/4000.0))
      +                          );
   456   0010C2  0E03               	movlw	3
   457   0010C4  6E3A               	movwf	(??_main+1)^0,c
   458   0010C6  0E8A               	movlw	138
   459   0010C8  6E39               	movwf	??_main^0,c
   460   0010CA  0E56               	movlw	86
   461   0010CC                     u457:
   462   0010CC  2EE8               	decfsz	wreg,f,c
   463   0010CE  D7FE               	bra	u457
   464   0010D0  2E39               	decfsz	??_main^0,f,c
   465   0010D2  D7FC               	bra	u457
   466   0010D4  2E3A               	decfsz	(??_main+1)^0,f,c
   467   0010D6  D7FA               	bra	u457
   468   0010D8                     
   469                           ;application.c: 154:                    gpio_pin_write_logic(&led_3,GPIO_LOW);
   470   0010D8  0E2C               	movlw	low _led_3
   471   0010DA  6E2F               	movwf	gpio_pin_write_logic@_pin_config^0,c
   472   0010DC  0E00               	movlw	0
   473   0010DE  6E30               	movwf	gpio_pin_write_logic@logic^0,c
   474   0010E0  ECC5  F00B         	call	_gpio_pin_write_logic	;wreg free
   475   0010E4                     
   476                           ;application.c: 155:                    gpio_pin_write_logic(&led_11,GPIO_LOW);
   477   0010E4  0E24               	movlw	low _led_11
   478   0010E6  6E2F               	movwf	gpio_pin_write_logic@_pin_config^0,c
   479   0010E8  0E00               	movlw	0
   480   0010EA  6E30               	movwf	gpio_pin_write_logic@logic^0,c
   481   0010EC  ECC5  F00B         	call	_gpio_pin_write_logic	;wreg free
   482   0010F0                     
   483                           ;application.c: 156:                    gpio_pin_write_logic(&led_4,GPIO_HIGH);
   484   0010F0  0E2B               	movlw	low _led_4
   485   0010F2  6E2F               	movwf	gpio_pin_write_logic@_pin_config^0,c
   486   0010F4  0E01               	movlw	1
   487   0010F6  6E30               	movwf	gpio_pin_write_logic@logic^0,c
   488   0010F8  ECC5  F00B         	call	_gpio_pin_write_logic	;wreg free
   489   0010FC                     
   490                           ;application.c: 157:                    gpio_pin_write_logic(&led_12,GPIO_HIGH);
   491   0010FC  0E23               	movlw	low _led_12
   492   0010FE  6E2F               	movwf	gpio_pin_write_logic@_pin_config^0,c
   493   001100  0E01               	movlw	1
   494   001102  6E30               	movwf	gpio_pin_write_logic@logic^0,c
   495   001104  ECC5  F00B         	call	_gpio_pin_write_logic	;wreg free
   496   001108                     
   497                           ;application.c: 158:                    _delay((unsigned long)((500)*(4000000UL/4000.0))
      +                          );
   498   001108  0E03               	movlw	3
   499   00110A  6E3A               	movwf	(??_main+1)^0,c
   500   00110C  0E8A               	movlw	138
   501   00110E  6E39               	movwf	??_main^0,c
   502   001110  0E56               	movlw	86
   503   001112                     u467:
   504   001112  2EE8               	decfsz	wreg,f,c
   505   001114  D7FE               	bra	u467
   506   001116  2E39               	decfsz	??_main^0,f,c
   507   001118  D7FC               	bra	u467
   508   00111A  2E3A               	decfsz	(??_main+1)^0,f,c
   509   00111C  D7FA               	bra	u467
   510                           
   511                           ;application.c: 159:                    gpio_pin_write_logic(&led_4,GPIO_LOW);
   512   00111E  0E2B               	movlw	low _led_4
   513   001120  6E2F               	movwf	gpio_pin_write_logic@_pin_config^0,c
   514   001122  0E00               	movlw	0
   515   001124  6E30               	movwf	gpio_pin_write_logic@logic^0,c
   516   001126  ECC5  F00B         	call	_gpio_pin_write_logic	;wreg free
   517                           
   518                           ;application.c: 160:                    gpio_pin_write_logic(&led_12,GPIO_LOW);
   519   00112A  0E23               	movlw	low _led_12
   520   00112C  6E2F               	movwf	gpio_pin_write_logic@_pin_config^0,c
   521   00112E  0E00               	movlw	0
   522   001130  6E30               	movwf	gpio_pin_write_logic@logic^0,c
   523   001132  ECC5  F00B         	call	_gpio_pin_write_logic	;wreg free
   524                           
   525                           ;application.c: 161:                    gpio_pin_write_logic(&led_5,GPIO_HIGH);
   526   001136  0E2A               	movlw	low _led_5
   527   001138  6E2F               	movwf	gpio_pin_write_logic@_pin_config^0,c
   528   00113A  0E01               	movlw	1
   529   00113C  6E30               	movwf	gpio_pin_write_logic@logic^0,c
   530   00113E  ECC5  F00B         	call	_gpio_pin_write_logic	;wreg free
   531                           
   532                           ;application.c: 162:                    gpio_pin_write_logic(&led_13,GPIO_HIGH);
   533   001142  0E22               	movlw	low _led_13
   534   001144  6E2F               	movwf	gpio_pin_write_logic@_pin_config^0,c
   535   001146  0E01               	movlw	1
   536   001148  6E30               	movwf	gpio_pin_write_logic@logic^0,c
   537   00114A  ECC5  F00B         	call	_gpio_pin_write_logic	;wreg free
   538   00114E                     
   539                           ;application.c: 163:                    _delay((unsigned long)((500)*(4000000UL/4000.0))
      +                          );
   540   00114E  0E03               	movlw	3
   541   001150  6E3A               	movwf	(??_main+1)^0,c
   542   001152  0E8A               	movlw	138
   543   001154  6E39               	movwf	??_main^0,c
   544   001156  0E56               	movlw	86
   545   001158                     u477:
   546   001158  2EE8               	decfsz	wreg,f,c
   547   00115A  D7FE               	bra	u477
   548   00115C  2E39               	decfsz	??_main^0,f,c
   549   00115E  D7FC               	bra	u477
   550   001160  2E3A               	decfsz	(??_main+1)^0,f,c
   551   001162  D7FA               	bra	u477
   552   001164                     
   553                           ;application.c: 164:                    gpio_pin_write_logic(&led_5,GPIO_LOW);
   554   001164  0E2A               	movlw	low _led_5
   555   001166  6E2F               	movwf	gpio_pin_write_logic@_pin_config^0,c
   556   001168  0E00               	movlw	0
   557   00116A  6E30               	movwf	gpio_pin_write_logic@logic^0,c
   558   00116C  ECC5  F00B         	call	_gpio_pin_write_logic	;wreg free
   559   001170                     
   560                           ;application.c: 165:                    gpio_pin_write_logic(&led_13,GPIO_LOW);
   561   001170  0E22               	movlw	low _led_13
   562   001172  6E2F               	movwf	gpio_pin_write_logic@_pin_config^0,c
   563   001174  0E00               	movlw	0
   564   001176  6E30               	movwf	gpio_pin_write_logic@logic^0,c
   565   001178  ECC5  F00B         	call	_gpio_pin_write_logic	;wreg free
   566   00117C                     
   567                           ;application.c: 166:                    gpio_pin_write_logic(&led_6,GPIO_HIGH);
   568   00117C  0E29               	movlw	low _led_6
   569   00117E  6E2F               	movwf	gpio_pin_write_logic@_pin_config^0,c
   570   001180  0E01               	movlw	1
   571   001182  6E30               	movwf	gpio_pin_write_logic@logic^0,c
   572   001184  ECC5  F00B         	call	_gpio_pin_write_logic	;wreg free
   573   001188                     
   574                           ;application.c: 167:                    gpio_pin_write_logic(&led_14,GPIO_HIGH);
   575   001188  0E21               	movlw	low _led_14
   576   00118A  6E2F               	movwf	gpio_pin_write_logic@_pin_config^0,c
   577   00118C  0E01               	movlw	1
   578   00118E  6E30               	movwf	gpio_pin_write_logic@logic^0,c
   579   001190  ECC5  F00B         	call	_gpio_pin_write_logic	;wreg free
   580   001194                     
   581                           ;application.c: 168:                    _delay((unsigned long)((500)*(4000000UL/4000.0))
      +                          );
   582   001194  0E03               	movlw	3
   583   001196  6E3A               	movwf	(??_main+1)^0,c
   584   001198  0E8A               	movlw	138
   585   00119A  6E39               	movwf	??_main^0,c
   586   00119C  0E56               	movlw	86
   587   00119E                     u487:
   588   00119E  2EE8               	decfsz	wreg,f,c
   589   0011A0  D7FE               	bra	u487
   590   0011A2  2E39               	decfsz	??_main^0,f,c
   591   0011A4  D7FC               	bra	u487
   592   0011A6  2E3A               	decfsz	(??_main+1)^0,f,c
   593   0011A8  D7FA               	bra	u487
   594                           
   595                           ;application.c: 169:                    gpio_pin_write_logic(&led_6,GPIO_LOW);
   596   0011AA  0E29               	movlw	low _led_6
   597   0011AC  6E2F               	movwf	gpio_pin_write_logic@_pin_config^0,c
   598   0011AE  0E00               	movlw	0
   599   0011B0  6E30               	movwf	gpio_pin_write_logic@logic^0,c
   600   0011B2  ECC5  F00B         	call	_gpio_pin_write_logic	;wreg free
   601                           
   602                           ;application.c: 170:                    gpio_pin_write_logic(&led_14,GPIO_LOW);
   603   0011B6  0E21               	movlw	low _led_14
   604   0011B8  6E2F               	movwf	gpio_pin_write_logic@_pin_config^0,c
   605   0011BA  0E00               	movlw	0
   606   0011BC  6E30               	movwf	gpio_pin_write_logic@logic^0,c
   607   0011BE  ECC5  F00B         	call	_gpio_pin_write_logic	;wreg free
   608                           
   609                           ;application.c: 171:                    gpio_pin_write_logic(&led_7,GPIO_HIGH);
   610   0011C2  0E28               	movlw	low _led_7
   611   0011C4  6E2F               	movwf	gpio_pin_write_logic@_pin_config^0,c
   612   0011C6  0E01               	movlw	1
   613   0011C8  6E30               	movwf	gpio_pin_write_logic@logic^0,c
   614   0011CA  ECC5  F00B         	call	_gpio_pin_write_logic	;wreg free
   615                           
   616                           ;application.c: 172:                    gpio_pin_write_logic(&led_15,GPIO_HIGH);
   617   0011CE  0E20               	movlw	low _led_15
   618   0011D0  6E2F               	movwf	gpio_pin_write_logic@_pin_config^0,c
   619   0011D2  0E01               	movlw	1
   620   0011D4  6E30               	movwf	gpio_pin_write_logic@logic^0,c
   621   0011D6  ECC5  F00B         	call	_gpio_pin_write_logic	;wreg free
   622   0011DA                     
   623                           ;application.c: 173:                    _delay((unsigned long)((500)*(4000000UL/4000.0))
      +                          );
   624   0011DA  0E03               	movlw	3
   625   0011DC  6E3A               	movwf	(??_main+1)^0,c
   626   0011DE  0E8A               	movlw	138
   627   0011E0  6E39               	movwf	??_main^0,c
   628   0011E2  0E56               	movlw	86
   629   0011E4                     u497:
   630   0011E4  2EE8               	decfsz	wreg,f,c
   631   0011E6  D7FE               	bra	u497
   632   0011E8  2E39               	decfsz	??_main^0,f,c
   633   0011EA  D7FC               	bra	u497
   634   0011EC  2E3A               	decfsz	(??_main+1)^0,f,c
   635   0011EE  D7FA               	bra	u497
   636   0011F0                     
   637                           ;application.c: 174:                    gpio_pin_write_logic(&led_7,GPIO_LOW);
   638   0011F0  0E28               	movlw	low _led_7
   639   0011F2  6E2F               	movwf	gpio_pin_write_logic@_pin_config^0,c
   640   0011F4  0E00               	movlw	0
   641   0011F6  6E30               	movwf	gpio_pin_write_logic@logic^0,c
   642   0011F8  ECC5  F00B         	call	_gpio_pin_write_logic	;wreg free
   643   0011FC                     
   644                           ;application.c: 175:                    gpio_pin_write_logic(&led_15,GPIO_LOW);
   645   0011FC  0E20               	movlw	low _led_15
   646   0011FE  6E2F               	movwf	gpio_pin_write_logic@_pin_config^0,c
   647   001200  0E00               	movlw	0
   648   001202  6E30               	movwf	gpio_pin_write_logic@logic^0,c
   649   001204  ECC5  F00B         	call	_gpio_pin_write_logic	;wreg free
   650   001208                     
   651                           ;application.c: 176:                    gpio_pin_write_logic(&led_8,GPIO_HIGH);
   652   001208  0E27               	movlw	low _led_8
   653   00120A  6E2F               	movwf	gpio_pin_write_logic@_pin_config^0,c
   654   00120C  0E01               	movlw	1
   655   00120E  6E30               	movwf	gpio_pin_write_logic@logic^0,c
   656   001210  ECC5  F00B         	call	_gpio_pin_write_logic	;wreg free
   657   001214                     
   658                           ;application.c: 177:                    gpio_pin_write_logic(&led_16,GPIO_HIGH);
   659   001214  0E1F               	movlw	low _led_16
   660   001216  6E2F               	movwf	gpio_pin_write_logic@_pin_config^0,c
   661   001218  0E01               	movlw	1
   662   00121A  6E30               	movwf	gpio_pin_write_logic@logic^0,c
   663   00121C  ECC5  F00B         	call	_gpio_pin_write_logic	;wreg free
   664   001220                     
   665                           ;application.c: 178:                    _delay((unsigned long)((500)*(4000000UL/4000.0))
      +                          );
   666   001220  0E03               	movlw	3
   667   001222  6E3A               	movwf	(??_main+1)^0,c
   668   001224  0E8A               	movlw	138
   669   001226  6E39               	movwf	??_main^0,c
   670   001228  0E56               	movlw	86
   671   00122A                     u507:
   672   00122A  2EE8               	decfsz	wreg,f,c
   673   00122C  D7FE               	bra	u507
   674   00122E  2E39               	decfsz	??_main^0,f,c
   675   001230  D7FC               	bra	u507
   676   001232  2E3A               	decfsz	(??_main+1)^0,f,c
   677   001234  D7FA               	bra	u507
   678                           
   679                           ;application.c: 183:                    gpio_pin_write_logic(&led_8,GPIO_LOW);
   680   001236  0E27               	movlw	low _led_8
   681   001238  6E2F               	movwf	gpio_pin_write_logic@_pin_config^0,c
   682   00123A  0E00               	movlw	0
   683   00123C  6E30               	movwf	gpio_pin_write_logic@logic^0,c
   684   00123E  ECC5  F00B         	call	_gpio_pin_write_logic	;wreg free
   685                           
   686                           ;application.c: 184:                    gpio_pin_write_logic(&led_16,GPIO_LOW);
   687   001242  0E1F               	movlw	low _led_16
   688   001244  6E2F               	movwf	gpio_pin_write_logic@_pin_config^0,c
   689   001246  0E00               	movlw	0
   690   001248  6E30               	movwf	gpio_pin_write_logic@logic^0,c
   691   00124A  ECC5  F00B         	call	_gpio_pin_write_logic	;wreg free
   692                           
   693                           ;application.c: 185:                    gpio_pin_write_logic(&led_1,GPIO_HIGH);
   694   00124E  0E2E               	movlw	low _led_1
   695   001250  6E2F               	movwf	gpio_pin_write_logic@_pin_config^0,c
   696   001252  0E01               	movlw	1
   697   001254  6E30               	movwf	gpio_pin_write_logic@logic^0,c
   698   001256  ECC5  F00B         	call	_gpio_pin_write_logic	;wreg free
   699                           
   700                           ;application.c: 186:                    gpio_pin_write_logic(&led_9,GPIO_HIGH);
   701   00125A  0E26               	movlw	low _led_9
   702   00125C  6E2F               	movwf	gpio_pin_write_logic@_pin_config^0,c
   703   00125E  0E01               	movlw	1
   704   001260  6E30               	movwf	gpio_pin_write_logic@logic^0,c
   705   001262  ECC5  F00B         	call	_gpio_pin_write_logic	;wreg free
   706   001266                     
   707                           ;application.c: 187:                    _delay((unsigned long)((200)*(4000000UL/4000.0))
      +                          );
   708   001266  0E02               	movlw	2
   709   001268  6E3A               	movwf	(??_main+1)^0,c
   710   00126A  0E04               	movlw	4
   711   00126C  6E39               	movwf	??_main^0,c
   712   00126E  0EBA               	movlw	186
   713   001270                     u517:
   714   001270  2EE8               	decfsz	wreg,f,c
   715   001272  D7FE               	bra	u517
   716   001274  2E39               	decfsz	??_main^0,f,c
   717   001276  D7FC               	bra	u517
   718   001278  2E3A               	decfsz	(??_main+1)^0,f,c
   719   00127A  D7FA               	bra	u517
   720   00127C  D000               	nop2	
   721   00127E                     
   722                           ;application.c: 188:                    gpio_pin_write_logic(&led_1,GPIO_LOW);
   723   00127E  0E2E               	movlw	low _led_1
   724   001280  6E2F               	movwf	gpio_pin_write_logic@_pin_config^0,c
   725   001282  0E00               	movlw	0
   726   001284  6E30               	movwf	gpio_pin_write_logic@logic^0,c
   727   001286  ECC5  F00B         	call	_gpio_pin_write_logic	;wreg free
   728   00128A                     
   729                           ;application.c: 189:                    gpio_pin_write_logic(&led_9,GPIO_LOW);
   730   00128A  0E26               	movlw	low _led_9
   731   00128C  6E2F               	movwf	gpio_pin_write_logic@_pin_config^0,c
   732   00128E  0E00               	movlw	0
   733   001290  6E30               	movwf	gpio_pin_write_logic@logic^0,c
   734   001292  ECC5  F00B         	call	_gpio_pin_write_logic	;wreg free
   735   001296                     
   736                           ;application.c: 190:                    gpio_pin_write_logic(&led_2,GPIO_HIGH);
   737   001296  0E2D               	movlw	low _led_2
   738   001298  6E2F               	movwf	gpio_pin_write_logic@_pin_config^0,c
   739   00129A  0E01               	movlw	1
   740   00129C  6E30               	movwf	gpio_pin_write_logic@logic^0,c
   741   00129E  ECC5  F00B         	call	_gpio_pin_write_logic	;wreg free
   742   0012A2                     
   743                           ;application.c: 191:                    gpio_pin_write_logic(&led_10,GPIO_HIGH);
   744   0012A2  0E25               	movlw	low _led_10
   745   0012A4  6E2F               	movwf	gpio_pin_write_logic@_pin_config^0,c
   746   0012A6  0E01               	movlw	1
   747   0012A8  6E30               	movwf	gpio_pin_write_logic@logic^0,c
   748   0012AA  ECC5  F00B         	call	_gpio_pin_write_logic	;wreg free
   749   0012AE                     
   750                           ;application.c: 192:                    _delay((unsigned long)((200)*(4000000UL/4000.0))
      +                          );
   751   0012AE  0E02               	movlw	2
   752   0012B0  6E3A               	movwf	(??_main+1)^0,c
   753   0012B2  0E04               	movlw	4
   754   0012B4  6E39               	movwf	??_main^0,c
   755   0012B6  0EBA               	movlw	186
   756   0012B8                     u527:
   757   0012B8  2EE8               	decfsz	wreg,f,c
   758   0012BA  D7FE               	bra	u527
   759   0012BC  2E39               	decfsz	??_main^0,f,c
   760   0012BE  D7FC               	bra	u527
   761   0012C0  2E3A               	decfsz	(??_main+1)^0,f,c
   762   0012C2  D7FA               	bra	u527
   763   0012C4  D000               	nop2	
   764                           
   765                           ;application.c: 193:                    gpio_pin_write_logic(&led_2,GPIO_LOW);
   766   0012C6  0E2D               	movlw	low _led_2
   767   0012C8  6E2F               	movwf	gpio_pin_write_logic@_pin_config^0,c
   768   0012CA  0E00               	movlw	0
   769   0012CC  6E30               	movwf	gpio_pin_write_logic@logic^0,c
   770   0012CE  ECC5  F00B         	call	_gpio_pin_write_logic	;wreg free
   771                           
   772                           ;application.c: 194:                    gpio_pin_write_logic(&led_10,GPIO_LOW);
   773   0012D2  0E25               	movlw	low _led_10
   774   0012D4  6E2F               	movwf	gpio_pin_write_logic@_pin_config^0,c
   775   0012D6  0E00               	movlw	0
   776   0012D8  6E30               	movwf	gpio_pin_write_logic@logic^0,c
   777   0012DA  ECC5  F00B         	call	_gpio_pin_write_logic	;wreg free
   778                           
   779                           ;application.c: 195:                    gpio_pin_write_logic(&led_3,GPIO_HIGH);
   780   0012DE  0E2C               	movlw	low _led_3
   781   0012E0  6E2F               	movwf	gpio_pin_write_logic@_pin_config^0,c
   782   0012E2  0E01               	movlw	1
   783   0012E4  6E30               	movwf	gpio_pin_write_logic@logic^0,c
   784   0012E6  ECC5  F00B         	call	_gpio_pin_write_logic	;wreg free
   785                           
   786                           ;application.c: 196:                    gpio_pin_write_logic(&led_11,GPIO_HIGH);
   787   0012EA  0E24               	movlw	low _led_11
   788   0012EC  6E2F               	movwf	gpio_pin_write_logic@_pin_config^0,c
   789   0012EE  0E01               	movlw	1
   790   0012F0  6E30               	movwf	gpio_pin_write_logic@logic^0,c
   791   0012F2  ECC5  F00B         	call	_gpio_pin_write_logic	;wreg free
   792   0012F6                     
   793                           ;application.c: 197:                    _delay((unsigned long)((200)*(4000000UL/4000.0))
      +                          );
   794   0012F6  0E02               	movlw	2
   795   0012F8  6E3A               	movwf	(??_main+1)^0,c
   796   0012FA  0E04               	movlw	4
   797   0012FC  6E39               	movwf	??_main^0,c
   798   0012FE  0EBA               	movlw	186
   799   001300                     u537:
   800   001300  2EE8               	decfsz	wreg,f,c
   801   001302  D7FE               	bra	u537
   802   001304  2E39               	decfsz	??_main^0,f,c
   803   001306  D7FC               	bra	u537
   804   001308  2E3A               	decfsz	(??_main+1)^0,f,c
   805   00130A  D7FA               	bra	u537
   806   00130C  D000               	nop2	
   807   00130E                     
   808                           ;application.c: 198:                    gpio_pin_write_logic(&led_3,GPIO_LOW);
   809   00130E  0E2C               	movlw	low _led_3
   810   001310  6E2F               	movwf	gpio_pin_write_logic@_pin_config^0,c
   811   001312  0E00               	movlw	0
   812   001314  6E30               	movwf	gpio_pin_write_logic@logic^0,c
   813   001316  ECC5  F00B         	call	_gpio_pin_write_logic	;wreg free
   814   00131A                     
   815                           ;application.c: 199:                    gpio_pin_write_logic(&led_11,GPIO_LOW);
   816   00131A  0E24               	movlw	low _led_11
   817   00131C  6E2F               	movwf	gpio_pin_write_logic@_pin_config^0,c
   818   00131E  0E00               	movlw	0
   819   001320  6E30               	movwf	gpio_pin_write_logic@logic^0,c
   820   001322  ECC5  F00B         	call	_gpio_pin_write_logic	;wreg free
   821   001326                     
   822                           ;application.c: 200:                    gpio_pin_write_logic(&led_4,GPIO_HIGH);
   823   001326  0E2B               	movlw	low _led_4
   824   001328  6E2F               	movwf	gpio_pin_write_logic@_pin_config^0,c
   825   00132A  0E01               	movlw	1
   826   00132C  6E30               	movwf	gpio_pin_write_logic@logic^0,c
   827   00132E  ECC5  F00B         	call	_gpio_pin_write_logic	;wreg free
   828   001332                     
   829                           ;application.c: 201:                    gpio_pin_write_logic(&led_12,GPIO_HIGH);
   830   001332  0E23               	movlw	low _led_12
   831   001334  6E2F               	movwf	gpio_pin_write_logic@_pin_config^0,c
   832   001336  0E01               	movlw	1
   833   001338  6E30               	movwf	gpio_pin_write_logic@logic^0,c
   834   00133A  ECC5  F00B         	call	_gpio_pin_write_logic	;wreg free
   835   00133E                     
   836                           ;application.c: 202:                    _delay((unsigned long)((200)*(4000000UL/4000.0))
      +                          );
   837   00133E  0E02               	movlw	2
   838   001340  6E3A               	movwf	(??_main+1)^0,c
   839   001342  0E04               	movlw	4
   840   001344  6E39               	movwf	??_main^0,c
   841   001346  0EBA               	movlw	186
   842   001348                     u547:
   843   001348  2EE8               	decfsz	wreg,f,c
   844   00134A  D7FE               	bra	u547
   845   00134C  2E39               	decfsz	??_main^0,f,c
   846   00134E  D7FC               	bra	u547
   847   001350  2E3A               	decfsz	(??_main+1)^0,f,c
   848   001352  D7FA               	bra	u547
   849   001354  D000               	nop2	
   850                           
   851                           ;application.c: 203:                    gpio_pin_write_logic(&led_4,GPIO_LOW);
   852   001356  0E2B               	movlw	low _led_4
   853   001358  6E2F               	movwf	gpio_pin_write_logic@_pin_config^0,c
   854   00135A  0E00               	movlw	0
   855   00135C  6E30               	movwf	gpio_pin_write_logic@logic^0,c
   856   00135E  ECC5  F00B         	call	_gpio_pin_write_logic	;wreg free
   857                           
   858                           ;application.c: 204:                    gpio_pin_write_logic(&led_12,GPIO_LOW);
   859   001362  0E23               	movlw	low _led_12
   860   001364  6E2F               	movwf	gpio_pin_write_logic@_pin_config^0,c
   861   001366  0E00               	movlw	0
   862   001368  6E30               	movwf	gpio_pin_write_logic@logic^0,c
   863   00136A  ECC5  F00B         	call	_gpio_pin_write_logic	;wreg free
   864                           
   865                           ;application.c: 205:                    gpio_pin_write_logic(&led_5,GPIO_HIGH);
   866   00136E  0E2A               	movlw	low _led_5
   867   001370  6E2F               	movwf	gpio_pin_write_logic@_pin_config^0,c
   868   001372  0E01               	movlw	1
   869   001374  6E30               	movwf	gpio_pin_write_logic@logic^0,c
   870   001376  ECC5  F00B         	call	_gpio_pin_write_logic	;wreg free
   871                           
   872                           ;application.c: 206:                    gpio_pin_write_logic(&led_13,GPIO_HIGH);
   873   00137A  0E22               	movlw	low _led_13
   874   00137C  6E2F               	movwf	gpio_pin_write_logic@_pin_config^0,c
   875   00137E  0E01               	movlw	1
   876   001380  6E30               	movwf	gpio_pin_write_logic@logic^0,c
   877   001382  ECC5  F00B         	call	_gpio_pin_write_logic	;wreg free
   878   001386                     
   879                           ;application.c: 207:                    _delay((unsigned long)((200)*(4000000UL/4000.0))
      +                          );
   880   001386  0E02               	movlw	2
   881   001388  6E3A               	movwf	(??_main+1)^0,c
   882   00138A  0E04               	movlw	4
   883   00138C  6E39               	movwf	??_main^0,c
   884   00138E  0EBA               	movlw	186
   885   001390                     u557:
   886   001390  2EE8               	decfsz	wreg,f,c
   887   001392  D7FE               	bra	u557
   888   001394  2E39               	decfsz	??_main^0,f,c
   889   001396  D7FC               	bra	u557
   890   001398  2E3A               	decfsz	(??_main+1)^0,f,c
   891   00139A  D7FA               	bra	u557
   892   00139C  D000               	nop2	
   893   00139E                     
   894                           ;application.c: 208:                    gpio_pin_write_logic(&led_5,GPIO_LOW);
   895   00139E  0E2A               	movlw	low _led_5
   896   0013A0  6E2F               	movwf	gpio_pin_write_logic@_pin_config^0,c
   897   0013A2  0E00               	movlw	0
   898   0013A4  6E30               	movwf	gpio_pin_write_logic@logic^0,c
   899   0013A6  ECC5  F00B         	call	_gpio_pin_write_logic	;wreg free
   900   0013AA                     
   901                           ;application.c: 209:                    gpio_pin_write_logic(&led_13,GPIO_LOW);
   902   0013AA  0E22               	movlw	low _led_13
   903   0013AC  6E2F               	movwf	gpio_pin_write_logic@_pin_config^0,c
   904   0013AE  0E00               	movlw	0
   905   0013B0  6E30               	movwf	gpio_pin_write_logic@logic^0,c
   906   0013B2  ECC5  F00B         	call	_gpio_pin_write_logic	;wreg free
   907   0013B6                     
   908                           ;application.c: 210:                    gpio_pin_write_logic(&led_6,GPIO_HIGH);
   909   0013B6  0E29               	movlw	low _led_6
   910   0013B8  6E2F               	movwf	gpio_pin_write_logic@_pin_config^0,c
   911   0013BA  0E01               	movlw	1
   912   0013BC  6E30               	movwf	gpio_pin_write_logic@logic^0,c
   913   0013BE  ECC5  F00B         	call	_gpio_pin_write_logic	;wreg free
   914   0013C2                     
   915                           ;application.c: 211:                    gpio_pin_write_logic(&led_14,GPIO_HIGH);
   916   0013C2  0E21               	movlw	low _led_14
   917   0013C4  6E2F               	movwf	gpio_pin_write_logic@_pin_config^0,c
   918   0013C6  0E01               	movlw	1
   919   0013C8  6E30               	movwf	gpio_pin_write_logic@logic^0,c
   920   0013CA  ECC5  F00B         	call	_gpio_pin_write_logic	;wreg free
   921   0013CE                     
   922                           ;application.c: 212:                    _delay((unsigned long)((200)*(4000000UL/4000.0))
      +                          );
   923   0013CE  0E02               	movlw	2
   924   0013D0  6E3A               	movwf	(??_main+1)^0,c
   925   0013D2  0E04               	movlw	4
   926   0013D4  6E39               	movwf	??_main^0,c
   927   0013D6  0EBA               	movlw	186
   928   0013D8                     u567:
   929   0013D8  2EE8               	decfsz	wreg,f,c
   930   0013DA  D7FE               	bra	u567
   931   0013DC  2E39               	decfsz	??_main^0,f,c
   932   0013DE  D7FC               	bra	u567
   933   0013E0  2E3A               	decfsz	(??_main+1)^0,f,c
   934   0013E2  D7FA               	bra	u567
   935   0013E4  D000               	nop2	
   936                           
   937                           ;application.c: 213:                    gpio_pin_write_logic(&led_6,GPIO_LOW);
   938   0013E6  0E29               	movlw	low _led_6
   939   0013E8  6E2F               	movwf	gpio_pin_write_logic@_pin_config^0,c
   940   0013EA  0E00               	movlw	0
   941   0013EC  6E30               	movwf	gpio_pin_write_logic@logic^0,c
   942   0013EE  ECC5  F00B         	call	_gpio_pin_write_logic	;wreg free
   943                           
   944                           ;application.c: 214:                    gpio_pin_write_logic(&led_14,GPIO_LOW);
   945   0013F2  0E21               	movlw	low _led_14
   946   0013F4  6E2F               	movwf	gpio_pin_write_logic@_pin_config^0,c
   947   0013F6  0E00               	movlw	0
   948   0013F8  6E30               	movwf	gpio_pin_write_logic@logic^0,c
   949   0013FA  ECC5  F00B         	call	_gpio_pin_write_logic	;wreg free
   950                           
   951                           ;application.c: 215:                    gpio_pin_write_logic(&led_7,GPIO_HIGH);
   952   0013FE  0E28               	movlw	low _led_7
   953   001400  6E2F               	movwf	gpio_pin_write_logic@_pin_config^0,c
   954   001402  0E01               	movlw	1
   955   001404  6E30               	movwf	gpio_pin_write_logic@logic^0,c
   956   001406  ECC5  F00B         	call	_gpio_pin_write_logic	;wreg free
   957                           
   958                           ;application.c: 216:                    gpio_pin_write_logic(&led_15,GPIO_HIGH);
   959   00140A  0E20               	movlw	low _led_15
   960   00140C  6E2F               	movwf	gpio_pin_write_logic@_pin_config^0,c
   961   00140E  0E01               	movlw	1
   962   001410  6E30               	movwf	gpio_pin_write_logic@logic^0,c
   963   001412  ECC5  F00B         	call	_gpio_pin_write_logic	;wreg free
   964   001416                     
   965                           ;application.c: 217:                    _delay((unsigned long)((200)*(4000000UL/4000.0))
      +                          );
   966   001416  0E02               	movlw	2
   967   001418  6E3A               	movwf	(??_main+1)^0,c
   968   00141A  0E04               	movlw	4
   969   00141C  6E39               	movwf	??_main^0,c
   970   00141E  0EBA               	movlw	186
   971   001420                     u577:
   972   001420  2EE8               	decfsz	wreg,f,c
   973   001422  D7FE               	bra	u577
   974   001424  2E39               	decfsz	??_main^0,f,c
   975   001426  D7FC               	bra	u577
   976   001428  2E3A               	decfsz	(??_main+1)^0,f,c
   977   00142A  D7FA               	bra	u577
   978   00142C  D000               	nop2	
   979   00142E                     
   980                           ;application.c: 218:                    gpio_pin_write_logic(&led_7,GPIO_LOW);
   981   00142E  0E28               	movlw	low _led_7
   982   001430  6E2F               	movwf	gpio_pin_write_logic@_pin_config^0,c
   983   001432  0E00               	movlw	0
   984   001434  6E30               	movwf	gpio_pin_write_logic@logic^0,c
   985   001436  ECC5  F00B         	call	_gpio_pin_write_logic	;wreg free
   986   00143A                     
   987                           ;application.c: 219:                    gpio_pin_write_logic(&led_15,GPIO_LOW);
   988   00143A  0E20               	movlw	low _led_15
   989   00143C  6E2F               	movwf	gpio_pin_write_logic@_pin_config^0,c
   990   00143E  0E00               	movlw	0
   991   001440  6E30               	movwf	gpio_pin_write_logic@logic^0,c
   992   001442  ECC5  F00B         	call	_gpio_pin_write_logic	;wreg free
   993   001446                     
   994                           ;application.c: 220:                    gpio_pin_write_logic(&led_8,GPIO_HIGH);
   995   001446  0E27               	movlw	low _led_8
   996   001448  6E2F               	movwf	gpio_pin_write_logic@_pin_config^0,c
   997   00144A  0E01               	movlw	1
   998   00144C  6E30               	movwf	gpio_pin_write_logic@logic^0,c
   999   00144E  ECC5  F00B         	call	_gpio_pin_write_logic	;wreg free
  1000   001452                     
  1001                           ;application.c: 221:                    gpio_pin_write_logic(&led_16,GPIO_HIGH);
  1002   001452  0E1F               	movlw	low _led_16
  1003   001454  6E2F               	movwf	gpio_pin_write_logic@_pin_config^0,c
  1004   001456  0E01               	movlw	1
  1005   001458  6E30               	movwf	gpio_pin_write_logic@logic^0,c
  1006   00145A  ECC5  F00B         	call	_gpio_pin_write_logic	;wreg free
  1007   00145E                     
  1008                           ;application.c: 222:                    _delay((unsigned long)((200)*(4000000UL/4000.0))
      +                          );
  1009   00145E  0E02               	movlw	2
  1010   001460  6E3A               	movwf	(??_main+1)^0,c
  1011   001462  0E04               	movlw	4
  1012   001464  6E39               	movwf	??_main^0,c
  1013   001466  0EBA               	movlw	186
  1014   001468                     u587:
  1015   001468  2EE8               	decfsz	wreg,f,c
  1016   00146A  D7FE               	bra	u587
  1017   00146C  2E39               	decfsz	??_main^0,f,c
  1018   00146E  D7FC               	bra	u587
  1019   001470  2E3A               	decfsz	(??_main+1)^0,f,c
  1020   001472  D7FA               	bra	u587
  1021   001474  D000               	nop2	
  1022                           
  1023                           ;application.c: 226:                    gpio_pin_write_logic(&led_8,GPIO_LOW);
  1024   001476  0E27               	movlw	low _led_8
  1025   001478  6E2F               	movwf	gpio_pin_write_logic@_pin_config^0,c
  1026   00147A  0E00               	movlw	0
  1027   00147C  6E30               	movwf	gpio_pin_write_logic@logic^0,c
  1028   00147E  ECC5  F00B         	call	_gpio_pin_write_logic	;wreg free
  1029                           
  1030                           ;application.c: 227:                    gpio_pin_write_logic(&led_16,GPIO_LOW);
  1031   001482  0E1F               	movlw	low _led_16
  1032   001484  6E2F               	movwf	gpio_pin_write_logic@_pin_config^0,c
  1033   001486  0E00               	movlw	0
  1034   001488  6E30               	movwf	gpio_pin_write_logic@logic^0,c
  1035   00148A  ECC5  F00B         	call	_gpio_pin_write_logic	;wreg free
  1036                           
  1037                           ;application.c: 228:                    gpio_pin_write_logic(&led_1,GPIO_HIGH);
  1038   00148E  0E2E               	movlw	low _led_1
  1039   001490  6E2F               	movwf	gpio_pin_write_logic@_pin_config^0,c
  1040   001492  0E01               	movlw	1
  1041   001494  6E30               	movwf	gpio_pin_write_logic@logic^0,c
  1042   001496  ECC5  F00B         	call	_gpio_pin_write_logic	;wreg free
  1043                           
  1044                           ;application.c: 229:                    gpio_pin_write_logic(&led_9,GPIO_HIGH);
  1045   00149A  0E26               	movlw	low _led_9
  1046   00149C  6E2F               	movwf	gpio_pin_write_logic@_pin_config^0,c
  1047   00149E  0E01               	movlw	1
  1048   0014A0  6E30               	movwf	gpio_pin_write_logic@logic^0,c
  1049   0014A2  ECC5  F00B         	call	_gpio_pin_write_logic	;wreg free
  1050   0014A6                     
  1051                           ;application.c: 230:                    _delay((unsigned long)((100)*(4000000UL/4000.0))
      +                          );
  1052   0014A6  0E82               	movlw	130
  1053   0014A8  6E39               	movwf	??_main^0,c
  1054   0014AA  0EDE               	movlw	222
  1055   0014AC                     u597:
  1056   0014AC  2EE8               	decfsz	wreg,f,c
  1057   0014AE  D7FE               	bra	u597
  1058   0014B0  2E39               	decfsz	??_main^0,f,c
  1059   0014B2  D7FC               	bra	u597
  1060   0014B4                     
  1061                           ;application.c: 231:                    gpio_pin_write_logic(&led_1,GPIO_LOW);
  1062   0014B4  0E2E               	movlw	low _led_1
  1063   0014B6  6E2F               	movwf	gpio_pin_write_logic@_pin_config^0,c
  1064   0014B8  0E00               	movlw	0
  1065   0014BA  6E30               	movwf	gpio_pin_write_logic@logic^0,c
  1066   0014BC  ECC5  F00B         	call	_gpio_pin_write_logic	;wreg free
  1067   0014C0                     
  1068                           ;application.c: 232:                    gpio_pin_write_logic(&led_9,GPIO_LOW);
  1069   0014C0  0E26               	movlw	low _led_9
  1070   0014C2  6E2F               	movwf	gpio_pin_write_logic@_pin_config^0,c
  1071   0014C4  0E00               	movlw	0
  1072   0014C6  6E30               	movwf	gpio_pin_write_logic@logic^0,c
  1073   0014C8  ECC5  F00B         	call	_gpio_pin_write_logic	;wreg free
  1074   0014CC                     
  1075                           ;application.c: 233:                    gpio_pin_write_logic(&led_2,GPIO_HIGH);
  1076   0014CC  0E2D               	movlw	low _led_2
  1077   0014CE  6E2F               	movwf	gpio_pin_write_logic@_pin_config^0,c
  1078   0014D0  0E01               	movlw	1
  1079   0014D2  6E30               	movwf	gpio_pin_write_logic@logic^0,c
  1080   0014D4  ECC5  F00B         	call	_gpio_pin_write_logic	;wreg free
  1081   0014D8                     
  1082                           ;application.c: 234:                    gpio_pin_write_logic(&led_10,GPIO_HIGH);
  1083   0014D8  0E25               	movlw	low _led_10
  1084   0014DA  6E2F               	movwf	gpio_pin_write_logic@_pin_config^0,c
  1085   0014DC  0E01               	movlw	1
  1086   0014DE  6E30               	movwf	gpio_pin_write_logic@logic^0,c
  1087   0014E0  ECC5  F00B         	call	_gpio_pin_write_logic	;wreg free
  1088   0014E4                     
  1089                           ;application.c: 235:                    _delay((unsigned long)((100)*(4000000UL/4000.0))
      +                          );
  1090   0014E4  0E82               	movlw	130
  1091   0014E6  6E39               	movwf	??_main^0,c
  1092   0014E8  0EDE               	movlw	222
  1093   0014EA                     u607:
  1094   0014EA  2EE8               	decfsz	wreg,f,c
  1095   0014EC  D7FE               	bra	u607
  1096   0014EE  2E39               	decfsz	??_main^0,f,c
  1097   0014F0  D7FC               	bra	u607
  1098                           
  1099                           ;application.c: 236:                    gpio_pin_write_logic(&led_2,GPIO_LOW);
  1100   0014F2  0E2D               	movlw	low _led_2
  1101   0014F4  6E2F               	movwf	gpio_pin_write_logic@_pin_config^0,c
  1102   0014F6  0E00               	movlw	0
  1103   0014F8  6E30               	movwf	gpio_pin_write_logic@logic^0,c
  1104   0014FA  ECC5  F00B         	call	_gpio_pin_write_logic	;wreg free
  1105                           
  1106                           ;application.c: 237:                    gpio_pin_write_logic(&led_10,GPIO_LOW);
  1107   0014FE  0E25               	movlw	low _led_10
  1108   001500  6E2F               	movwf	gpio_pin_write_logic@_pin_config^0,c
  1109   001502  0E00               	movlw	0
  1110   001504  6E30               	movwf	gpio_pin_write_logic@logic^0,c
  1111   001506  ECC5  F00B         	call	_gpio_pin_write_logic	;wreg free
  1112                           
  1113                           ;application.c: 238:                    gpio_pin_write_logic(&led_3,GPIO_HIGH);
  1114   00150A  0E2C               	movlw	low _led_3
  1115   00150C  6E2F               	movwf	gpio_pin_write_logic@_pin_config^0,c
  1116   00150E  0E01               	movlw	1
  1117   001510  6E30               	movwf	gpio_pin_write_logic@logic^0,c
  1118   001512  ECC5  F00B         	call	_gpio_pin_write_logic	;wreg free
  1119                           
  1120                           ;application.c: 239:                    gpio_pin_write_logic(&led_11,GPIO_HIGH);
  1121   001516  0E24               	movlw	low _led_11
  1122   001518  6E2F               	movwf	gpio_pin_write_logic@_pin_config^0,c
  1123   00151A  0E01               	movlw	1
  1124   00151C  6E30               	movwf	gpio_pin_write_logic@logic^0,c
  1125   00151E  ECC5  F00B         	call	_gpio_pin_write_logic	;wreg free
  1126   001522                     
  1127                           ;application.c: 240:                    _delay((unsigned long)((100)*(4000000UL/4000.0))
      +                          );
  1128   001522  0E82               	movlw	130
  1129   001524  6E39               	movwf	??_main^0,c
  1130   001526  0EDE               	movlw	222
  1131   001528                     u617:
  1132   001528  2EE8               	decfsz	wreg,f,c
  1133   00152A  D7FE               	bra	u617
  1134   00152C  2E39               	decfsz	??_main^0,f,c
  1135   00152E  D7FC               	bra	u617
  1136   001530                     
  1137                           ;application.c: 241:                    gpio_pin_write_logic(&led_3,GPIO_LOW);
  1138   001530  0E2C               	movlw	low _led_3
  1139   001532  6E2F               	movwf	gpio_pin_write_logic@_pin_config^0,c
  1140   001534  0E00               	movlw	0
  1141   001536  6E30               	movwf	gpio_pin_write_logic@logic^0,c
  1142   001538  ECC5  F00B         	call	_gpio_pin_write_logic	;wreg free
  1143   00153C                     
  1144                           ;application.c: 242:                    gpio_pin_write_logic(&led_11,GPIO_LOW);
  1145   00153C  0E24               	movlw	low _led_11
  1146   00153E  6E2F               	movwf	gpio_pin_write_logic@_pin_config^0,c
  1147   001540  0E00               	movlw	0
  1148   001542  6E30               	movwf	gpio_pin_write_logic@logic^0,c
  1149   001544  ECC5  F00B         	call	_gpio_pin_write_logic	;wreg free
  1150   001548                     
  1151                           ;application.c: 243:                    gpio_pin_write_logic(&led_4,GPIO_HIGH);
  1152   001548  0E2B               	movlw	low _led_4
  1153   00154A  6E2F               	movwf	gpio_pin_write_logic@_pin_config^0,c
  1154   00154C  0E01               	movlw	1
  1155   00154E  6E30               	movwf	gpio_pin_write_logic@logic^0,c
  1156   001550  ECC5  F00B         	call	_gpio_pin_write_logic	;wreg free
  1157   001554                     
  1158                           ;application.c: 244:                    gpio_pin_write_logic(&led_12,GPIO_HIGH);
  1159   001554  0E23               	movlw	low _led_12
  1160   001556  6E2F               	movwf	gpio_pin_write_logic@_pin_config^0,c
  1161   001558  0E01               	movlw	1
  1162   00155A  6E30               	movwf	gpio_pin_write_logic@logic^0,c
  1163   00155C  ECC5  F00B         	call	_gpio_pin_write_logic	;wreg free
  1164   001560                     
  1165                           ;application.c: 245:                    _delay((unsigned long)((100)*(4000000UL/4000.0))
      +                          );
  1166   001560  0E82               	movlw	130
  1167   001562  6E39               	movwf	??_main^0,c
  1168   001564  0EDE               	movlw	222
  1169   001566                     u627:
  1170   001566  2EE8               	decfsz	wreg,f,c
  1171   001568  D7FE               	bra	u627
  1172   00156A  2E39               	decfsz	??_main^0,f,c
  1173   00156C  D7FC               	bra	u627
  1174                           
  1175                           ;application.c: 246:                    gpio_pin_write_logic(&led_4,GPIO_LOW);
  1176   00156E  0E2B               	movlw	low _led_4
  1177   001570  6E2F               	movwf	gpio_pin_write_logic@_pin_config^0,c
  1178   001572  0E00               	movlw	0
  1179   001574  6E30               	movwf	gpio_pin_write_logic@logic^0,c
  1180   001576  ECC5  F00B         	call	_gpio_pin_write_logic	;wreg free
  1181                           
  1182                           ;application.c: 247:                    gpio_pin_write_logic(&led_12,GPIO_LOW);
  1183   00157A  0E23               	movlw	low _led_12
  1184   00157C  6E2F               	movwf	gpio_pin_write_logic@_pin_config^0,c
  1185   00157E  0E00               	movlw	0
  1186   001580  6E30               	movwf	gpio_pin_write_logic@logic^0,c
  1187   001582  ECC5  F00B         	call	_gpio_pin_write_logic	;wreg free
  1188                           
  1189                           ;application.c: 248:                    gpio_pin_write_logic(&led_5,GPIO_HIGH);
  1190   001586  0E2A               	movlw	low _led_5
  1191   001588  6E2F               	movwf	gpio_pin_write_logic@_pin_config^0,c
  1192   00158A  0E01               	movlw	1
  1193   00158C  6E30               	movwf	gpio_pin_write_logic@logic^0,c
  1194   00158E  ECC5  F00B         	call	_gpio_pin_write_logic	;wreg free
  1195                           
  1196                           ;application.c: 249:                    gpio_pin_write_logic(&led_13,GPIO_HIGH);
  1197   001592  0E22               	movlw	low _led_13
  1198   001594  6E2F               	movwf	gpio_pin_write_logic@_pin_config^0,c
  1199   001596  0E01               	movlw	1
  1200   001598  6E30               	movwf	gpio_pin_write_logic@logic^0,c
  1201   00159A  ECC5  F00B         	call	_gpio_pin_write_logic	;wreg free
  1202   00159E                     
  1203                           ;application.c: 250:                    _delay((unsigned long)((100)*(4000000UL/4000.0))
      +                          );
  1204   00159E  0E82               	movlw	130
  1205   0015A0  6E39               	movwf	??_main^0,c
  1206   0015A2  0EDE               	movlw	222
  1207   0015A4                     u637:
  1208   0015A4  2EE8               	decfsz	wreg,f,c
  1209   0015A6  D7FE               	bra	u637
  1210   0015A8  2E39               	decfsz	??_main^0,f,c
  1211   0015AA  D7FC               	bra	u637
  1212   0015AC                     
  1213                           ;application.c: 251:                    gpio_pin_write_logic(&led_5,GPIO_LOW);
  1214   0015AC  0E2A               	movlw	low _led_5
  1215   0015AE  6E2F               	movwf	gpio_pin_write_logic@_pin_config^0,c
  1216   0015B0  0E00               	movlw	0
  1217   0015B2  6E30               	movwf	gpio_pin_write_logic@logic^0,c
  1218   0015B4  ECC5  F00B         	call	_gpio_pin_write_logic	;wreg free
  1219   0015B8                     
  1220                           ;application.c: 252:                    gpio_pin_write_logic(&led_13,GPIO_LOW);
  1221   0015B8  0E22               	movlw	low _led_13
  1222   0015BA  6E2F               	movwf	gpio_pin_write_logic@_pin_config^0,c
  1223   0015BC  0E00               	movlw	0
  1224   0015BE  6E30               	movwf	gpio_pin_write_logic@logic^0,c
  1225   0015C0  ECC5  F00B         	call	_gpio_pin_write_logic	;wreg free
  1226   0015C4                     
  1227                           ;application.c: 253:                    gpio_pin_write_logic(&led_6,GPIO_HIGH);
  1228   0015C4  0E29               	movlw	low _led_6
  1229   0015C6  6E2F               	movwf	gpio_pin_write_logic@_pin_config^0,c
  1230   0015C8  0E01               	movlw	1
  1231   0015CA  6E30               	movwf	gpio_pin_write_logic@logic^0,c
  1232   0015CC  ECC5  F00B         	call	_gpio_pin_write_logic	;wreg free
  1233   0015D0                     
  1234                           ;application.c: 254:                    gpio_pin_write_logic(&led_14,GPIO_HIGH);
  1235   0015D0  0E21               	movlw	low _led_14
  1236   0015D2  6E2F               	movwf	gpio_pin_write_logic@_pin_config^0,c
  1237   0015D4  0E01               	movlw	1
  1238   0015D6  6E30               	movwf	gpio_pin_write_logic@logic^0,c
  1239   0015D8  ECC5  F00B         	call	_gpio_pin_write_logic	;wreg free
  1240   0015DC                     
  1241                           ;application.c: 255:                    _delay((unsigned long)((100)*(4000000UL/4000.0))
      +                          );
  1242   0015DC  0E82               	movlw	130
  1243   0015DE  6E39               	movwf	??_main^0,c
  1244   0015E0  0EDE               	movlw	222
  1245   0015E2                     u647:
  1246   0015E2  2EE8               	decfsz	wreg,f,c
  1247   0015E4  D7FE               	bra	u647
  1248   0015E6  2E39               	decfsz	??_main^0,f,c
  1249   0015E8  D7FC               	bra	u647
  1250                           
  1251                           ;application.c: 256:                    gpio_pin_write_logic(&led_6,GPIO_LOW);
  1252   0015EA  0E29               	movlw	low _led_6
  1253   0015EC  6E2F               	movwf	gpio_pin_write_logic@_pin_config^0,c
  1254   0015EE  0E00               	movlw	0
  1255   0015F0  6E30               	movwf	gpio_pin_write_logic@logic^0,c
  1256   0015F2  ECC5  F00B         	call	_gpio_pin_write_logic	;wreg free
  1257                           
  1258                           ;application.c: 257:                    gpio_pin_write_logic(&led_14,GPIO_LOW);
  1259   0015F6  0E21               	movlw	low _led_14
  1260   0015F8  6E2F               	movwf	gpio_pin_write_logic@_pin_config^0,c
  1261   0015FA  0E00               	movlw	0
  1262   0015FC  6E30               	movwf	gpio_pin_write_logic@logic^0,c
  1263   0015FE  ECC5  F00B         	call	_gpio_pin_write_logic	;wreg free
  1264                           
  1265                           ;application.c: 258:                    gpio_pin_write_logic(&led_7,GPIO_HIGH);
  1266   001602  0E28               	movlw	low _led_7
  1267   001604  6E2F               	movwf	gpio_pin_write_logic@_pin_config^0,c
  1268   001606  0E01               	movlw	1
  1269   001608  6E30               	movwf	gpio_pin_write_logic@logic^0,c
  1270   00160A  ECC5  F00B         	call	_gpio_pin_write_logic	;wreg free
  1271                           
  1272                           ;application.c: 259:                    gpio_pin_write_logic(&led_15,GPIO_HIGH);
  1273   00160E  0E20               	movlw	low _led_15
  1274   001610  6E2F               	movwf	gpio_pin_write_logic@_pin_config^0,c
  1275   001612  0E01               	movlw	1
  1276   001614  6E30               	movwf	gpio_pin_write_logic@logic^0,c
  1277   001616  ECC5  F00B         	call	_gpio_pin_write_logic	;wreg free
  1278   00161A                     
  1279                           ;application.c: 260:                    _delay((unsigned long)((100)*(4000000UL/4000.0))
      +                          );
  1280   00161A  0E82               	movlw	130
  1281   00161C  6E39               	movwf	??_main^0,c
  1282   00161E  0EDE               	movlw	222
  1283   001620                     u657:
  1284   001620  2EE8               	decfsz	wreg,f,c
  1285   001622  D7FE               	bra	u657
  1286   001624  2E39               	decfsz	??_main^0,f,c
  1287   001626  D7FC               	bra	u657
  1288   001628                     
  1289                           ;application.c: 261:                    gpio_pin_write_logic(&led_7,GPIO_LOW);
  1290   001628  0E28               	movlw	low _led_7
  1291   00162A  6E2F               	movwf	gpio_pin_write_logic@_pin_config^0,c
  1292   00162C  0E00               	movlw	0
  1293   00162E  6E30               	movwf	gpio_pin_write_logic@logic^0,c
  1294   001630  ECC5  F00B         	call	_gpio_pin_write_logic	;wreg free
  1295   001634                     
  1296                           ;application.c: 262:                    gpio_pin_write_logic(&led_15,GPIO_LOW);
  1297   001634  0E20               	movlw	low _led_15
  1298   001636  6E2F               	movwf	gpio_pin_write_logic@_pin_config^0,c
  1299   001638  0E00               	movlw	0
  1300   00163A  6E30               	movwf	gpio_pin_write_logic@logic^0,c
  1301   00163C  ECC5  F00B         	call	_gpio_pin_write_logic	;wreg free
  1302   001640                     
  1303                           ;application.c: 263:                    gpio_pin_write_logic(&led_8,GPIO_HIGH);
  1304   001640  0E27               	movlw	low _led_8
  1305   001642  6E2F               	movwf	gpio_pin_write_logic@_pin_config^0,c
  1306   001644  0E01               	movlw	1
  1307   001646  6E30               	movwf	gpio_pin_write_logic@logic^0,c
  1308   001648  ECC5  F00B         	call	_gpio_pin_write_logic	;wreg free
  1309   00164C                     
  1310                           ;application.c: 264:                    gpio_pin_write_logic(&led_16,GPIO_HIGH);
  1311   00164C  0E1F               	movlw	low _led_16
  1312   00164E  6E2F               	movwf	gpio_pin_write_logic@_pin_config^0,c
  1313   001650  0E01               	movlw	1
  1314   001652  6E30               	movwf	gpio_pin_write_logic@logic^0,c
  1315   001654  ECC5  F00B         	call	_gpio_pin_write_logic	;wreg free
  1316   001658                     
  1317                           ;application.c: 265:                    _delay((unsigned long)((100)*(4000000UL/4000.0))
      +                          );
  1318   001658  0E82               	movlw	130
  1319   00165A  6E39               	movwf	??_main^0,c
  1320   00165C  0EDE               	movlw	222
  1321   00165E                     u667:
  1322   00165E  2EE8               	decfsz	wreg,f,c
  1323   001660  D7FE               	bra	u667
  1324   001662  2E39               	decfsz	??_main^0,f,c
  1325   001664  D7FC               	bra	u667
  1326   001666  EF03  F008         	goto	l160
  1327   00166A  EF00  F000         	goto	start
  1328   00166E                     __end_of_main:
  1329                           	callstack 0
  1330                           
  1331 ;; *************** function _application_intialize *****************
  1332 ;; Defined at:
  1333 ;;		line 277 in file "application.c"
  1334 ;; Parameters:    Size  Location     Type
  1335 ;;		None
  1336 ;; Auto vars:     Size  Location     Type
  1337 ;;		None
  1338 ;; Return value:  Size  Location     Type
  1339 ;;                  1    wreg      void 
  1340 ;; Registers used:
  1341 ;;		wreg, fsr2l, fsr2h, status,2, status,0, prodl, prodh, cstack
  1342 ;; Tracked objects:
  1343 ;;		On entry : 0/0
  1344 ;;		On exit  : 0/0
  1345 ;;		Unchanged: 0/0
  1346 ;; Data sizes:     COMRAM   BANK0   BANK1   BANK2   BANK3   BANK4   BANK5   BANK6   BANK7   BANK8   BANK9  BANK10  BANK1
      +1  BANK12  BANK13  BANK14  BANK15
  1347 ;;      Params:         0       0       0       0       0       0       0       0       0       0       0       0       
      +0       0       0       0       0
  1348 ;;      Locals:         0       0       0       0       0       0       0       0       0       0       0       0       
      +0       0       0       0       0
  1349 ;;      Temps:          0       0       0       0       0       0       0       0       0       0       0       0       
      +0       0       0       0       0
  1350 ;;      Totals:         0       0       0       0       0       0       0       0       0       0       0       0       
      +0       0       0       0       0
  1351 ;;Total ram usage:        0 bytes
  1352 ;; Hardware stack levels used: 1
  1353 ;; Hardware stack levels required when called: 2
  1354 ;; This function calls:
  1355 ;;		_gpio_pin_intialize
  1356 ;; This function is called by:
  1357 ;;		_main
  1358 ;; This function uses a non-reentrant model
  1359 ;;
  1360                           
  1361                           	psect	text1
  1362   001890                     __ptext1:
  1363                           	callstack 0
  1364   001890                     _application_intialize:
  1365                           	callstack 28
  1366   001890                     
  1367                           ;application.c: 278:      ret = gpio_pin_intialize(&led_1);
  1368   001890  0E2E               	movlw	low _led_1
  1369   001892  6E36               	movwf	gpio_pin_intialize@_pin_config^0,c
  1370   001894  EC99  F00C         	call	_gpio_pin_intialize	;wreg free
  1371   001898  6E3B               	movwf	_ret^0,c
  1372                           
  1373                           ;application.c: 279:      ret = gpio_pin_intialize(&led_2);
  1374   00189A  0E2D               	movlw	low _led_2
  1375   00189C  6E36               	movwf	gpio_pin_intialize@_pin_config^0,c
  1376   00189E  EC99  F00C         	call	_gpio_pin_intialize	;wreg free
  1377   0018A2  6E3B               	movwf	_ret^0,c
  1378                           
  1379                           ;application.c: 280:      ret = gpio_pin_intialize(&led_3);
  1380   0018A4  0E2C               	movlw	low _led_3
  1381   0018A6  6E36               	movwf	gpio_pin_intialize@_pin_config^0,c
  1382   0018A8  EC99  F00C         	call	_gpio_pin_intialize	;wreg free
  1383   0018AC  6E3B               	movwf	_ret^0,c
  1384                           
  1385                           ;application.c: 281:      ret = gpio_pin_intialize(&led_4);
  1386   0018AE  0E2B               	movlw	low _led_4
  1387   0018B0  6E36               	movwf	gpio_pin_intialize@_pin_config^0,c
  1388   0018B2  EC99  F00C         	call	_gpio_pin_intialize	;wreg free
  1389   0018B6  6E3B               	movwf	_ret^0,c
  1390                           
  1391                           ;application.c: 282:      ret = gpio_pin_intialize(&led_5);
  1392   0018B8  0E2A               	movlw	low _led_5
  1393   0018BA  6E36               	movwf	gpio_pin_intialize@_pin_config^0,c
  1394   0018BC  EC99  F00C         	call	_gpio_pin_intialize	;wreg free
  1395   0018C0  6E3B               	movwf	_ret^0,c
  1396                           
  1397                           ;application.c: 283:      ret = gpio_pin_intialize(&led_6);
  1398   0018C2  0E29               	movlw	low _led_6
  1399   0018C4  6E36               	movwf	gpio_pin_intialize@_pin_config^0,c
  1400   0018C6  EC99  F00C         	call	_gpio_pin_intialize	;wreg free
  1401   0018CA  6E3B               	movwf	_ret^0,c
  1402                           
  1403                           ;application.c: 284:      ret = gpio_pin_intialize(&led_7);
  1404   0018CC  0E28               	movlw	low _led_7
  1405   0018CE  6E36               	movwf	gpio_pin_intialize@_pin_config^0,c
  1406   0018D0  EC99  F00C         	call	_gpio_pin_intialize	;wreg free
  1407   0018D4  6E3B               	movwf	_ret^0,c
  1408                           
  1409                           ;application.c: 285:      ret = gpio_pin_intialize(&led_8);
  1410   0018D6  0E27               	movlw	low _led_8
  1411   0018D8  6E36               	movwf	gpio_pin_intialize@_pin_config^0,c
  1412   0018DA  EC99  F00C         	call	_gpio_pin_intialize	;wreg free
  1413   0018DE  6E3B               	movwf	_ret^0,c
  1414                           
  1415                           ;application.c: 287:      ret = gpio_pin_intialize(&led_9);
  1416   0018E0  0E26               	movlw	low _led_9
  1417   0018E2  6E36               	movwf	gpio_pin_intialize@_pin_config^0,c
  1418   0018E4  EC99  F00C         	call	_gpio_pin_intialize	;wreg free
  1419   0018E8  6E3B               	movwf	_ret^0,c
  1420                           
  1421                           ;application.c: 288:      ret = gpio_pin_intialize(&led_10);
  1422   0018EA  0E25               	movlw	low _led_10
  1423   0018EC  6E36               	movwf	gpio_pin_intialize@_pin_config^0,c
  1424   0018EE  EC99  F00C         	call	_gpio_pin_intialize	;wreg free
  1425   0018F2  6E3B               	movwf	_ret^0,c
  1426                           
  1427                           ;application.c: 289:      ret = gpio_pin_intialize(&led_11);
  1428   0018F4  0E24               	movlw	low _led_11
  1429   0018F6  6E36               	movwf	gpio_pin_intialize@_pin_config^0,c
  1430   0018F8  EC99  F00C         	call	_gpio_pin_intialize	;wreg free
  1431   0018FC  6E3B               	movwf	_ret^0,c
  1432                           
  1433                           ;application.c: 290:      ret = gpio_pin_intialize(&led_12);
  1434   0018FE  0E23               	movlw	low _led_12
  1435   001900  6E36               	movwf	gpio_pin_intialize@_pin_config^0,c
  1436   001902  EC99  F00C         	call	_gpio_pin_intialize	;wreg free
  1437   001906  6E3B               	movwf	_ret^0,c
  1438                           
  1439                           ;application.c: 291:      ret = gpio_pin_intialize(&led_13);
  1440   001908  0E22               	movlw	low _led_13
  1441   00190A  6E36               	movwf	gpio_pin_intialize@_pin_config^0,c
  1442   00190C  EC99  F00C         	call	_gpio_pin_intialize	;wreg free
  1443   001910  6E3B               	movwf	_ret^0,c
  1444                           
  1445                           ;application.c: 292:      ret = gpio_pin_intialize(&led_14);
  1446   001912  0E21               	movlw	low _led_14
  1447   001914  6E36               	movwf	gpio_pin_intialize@_pin_config^0,c
  1448   001916  EC99  F00C         	call	_gpio_pin_intialize	;wreg free
  1449   00191A  6E3B               	movwf	_ret^0,c
  1450                           
  1451                           ;application.c: 293:      ret = gpio_pin_intialize(&led_15);
  1452   00191C  0E20               	movlw	low _led_15
  1453   00191E  6E36               	movwf	gpio_pin_intialize@_pin_config^0,c
  1454   001920  EC99  F00C         	call	_gpio_pin_intialize	;wreg free
  1455   001924  6E3B               	movwf	_ret^0,c
  1456                           
  1457                           ;application.c: 294:      ret = gpio_pin_intialize(&led_16);
  1458   001926  0E1F               	movlw	low _led_16
  1459   001928  6E36               	movwf	gpio_pin_intialize@_pin_config^0,c
  1460   00192A  EC99  F00C         	call	_gpio_pin_intialize	;wreg free
  1461   00192E  6E3B               	movwf	_ret^0,c
  1462   001930  0012               	return		;funcret
  1463   001932                     __end_of_application_intialize:
  1464                           	callstack 0
  1465                           
  1466 ;; *************** function _gpio_pin_intialize *****************
  1467 ;; Defined at:
  1468 ;;		line 156 in file "MCAL_Layer/GPIO/hal_gpio.c"
  1469 ;; Parameters:    Size  Location     Type
  1470 ;;  _pin_config     1    7[COMRAM] PTR const struct .
  1471 ;;		 -> led_15(1), led_7(1), led_14(1), led_6(1), 
  1472 ;;		 -> led_13(1), led_5(1), led_12(1), led_4(1), 
  1473 ;;		 -> led_11(1), led_3(1), led_10(1), led_2(1), 
  1474 ;;		 -> led_9(1), led_1(1), led_16(1), led_8(1), 
  1475 ;; Auto vars:     Size  Location     Type
  1476 ;;  ret             1    9[COMRAM] unsigned char 
  1477 ;; Return value:  Size  Location     Type
  1478 ;;                  1    wreg      unsigned char 
  1479 ;; Registers used:
  1480 ;;		wreg, fsr2l, fsr2h, status,2, status,0, prodl, prodh, cstack
  1481 ;; Tracked objects:
  1482 ;;		On entry : 0/0
  1483 ;;		On exit  : 0/0
  1484 ;;		Unchanged: 0/0
  1485 ;; Data sizes:     COMRAM   BANK0   BANK1   BANK2   BANK3   BANK4   BANK5   BANK6   BANK7   BANK8   BANK9  BANK10  BANK1
      +1  BANK12  BANK13  BANK14  BANK15
  1486 ;;      Params:         1       0       0       0       0       0       0       0       0       0       0       0       
      +0       0       0       0       0
  1487 ;;      Locals:         1       0       0       0       0       0       0       0       0       0       0       0       
      +0       0       0       0       0
  1488 ;;      Temps:          1       0       0       0       0       0       0       0       0       0       0       0       
      +0       0       0       0       0
  1489 ;;      Totals:         3       0       0       0       0       0       0       0       0       0       0       0       
      +0       0       0       0       0
  1490 ;;Total ram usage:        3 bytes
  1491 ;; Hardware stack levels used: 1
  1492 ;; Hardware stack levels required when called: 1
  1493 ;; This function calls:
  1494 ;;		_gpio_pin_direction_intialize
  1495 ;;		_gpio_pin_write_logic
  1496 ;; This function is called by:
  1497 ;;		_application_intialize
  1498 ;; This function uses a non-reentrant model
  1499 ;;
  1500                           
  1501                           	psect	text2
  1502   001932                     __ptext2:
  1503                           	callstack 0
  1504   001932                     _gpio_pin_intialize:
  1505                           	callstack 28
  1506   001932                     
  1507                           ;MCAL_Layer/GPIO/hal_gpio.c: 157:     Std_ReturnType ret = (Std_ReturnType)0x01;
  1508   001932  0E01               	movlw	1
  1509   001934  6E38               	movwf	gpio_pin_intialize@ret^0,c
  1510                           
  1511                           ;MCAL_Layer/GPIO/hal_gpio.c: 158:     if(((void*)0) == _pin_config || _pin_config->pin >
      +                           8 - 1)
  1512   001936  5036               	movf	gpio_pin_intialize@_pin_config^0,w,c
  1513   001938  B4D8               	btfsc	status,2,c
  1514   00193A  EFA1  F00C         	goto	u411
  1515   00193E  EFA3  F00C         	goto	u410
  1516   001942                     u411:
  1517   001942  EFB3  F00C         	goto	l1180
  1518   001946                     u410:
  1519   001946  5036               	movf	gpio_pin_intialize@_pin_config^0,w,c
  1520   001948  6ED9               	movwf	fsr2l,c
  1521   00194A  6ADA               	clrf	fsr2h,c
  1522   00194C  30DF               	rrcf	223,w,c
  1523   00194E  32E8               	rrcf	wreg,f,c
  1524   001950  32E8               	rrcf	wreg,f,c
  1525   001952  0B07               	andlw	7
  1526   001954  6E37               	movwf	??_gpio_pin_intialize^0,c
  1527   001956  0E07               	movlw	7
  1528   001958  6437               	cpfsgt	??_gpio_pin_intialize^0,c
  1529   00195A  EFB1  F00C         	goto	u421
  1530   00195E  EFB3  F00C         	goto	u420
  1531   001962                     u421:
  1532   001962  EFB7  F00C         	goto	l1182
  1533   001966                     u420:
  1534   001966                     l1180:
  1535                           
  1536                           ;MCAL_Layer/GPIO/hal_gpio.c: 159:     {;MCAL_Layer/GPIO/hal_gpio.c: 160:         ret = (
      +                          Std_ReturnType)0x00 ;
  1537   001966  0E00               	movlw	0
  1538   001968  6E38               	movwf	gpio_pin_intialize@ret^0,c
  1539                           
  1540                           ;MCAL_Layer/GPIO/hal_gpio.c: 161:     }
  1541   00196A  EFC6  F00C         	goto	l1184
  1542   00196E                     l1182:
  1543                           
  1544                           ;MCAL_Layer/GPIO/hal_gpio.c: 163:     {;MCAL_Layer/GPIO/hal_gpio.c: 164:         gpio_pi
      +                          n_direction_intialize(_pin_config) ;
  1545   00196E  C036  F02F         	movff	gpio_pin_intialize@_pin_config,gpio_pin_direction_intialize@_pin_config
  1546   001972  EC37  F00B         	call	_gpio_pin_direction_intialize	;wreg free
  1547                           
  1548                           ;MCAL_Layer/GPIO/hal_gpio.c: 165:         gpio_pin_write_logic(_pin_config, _pin_config-
      +                          >logic);
  1549   001976  C036  F02F         	movff	gpio_pin_intialize@_pin_config,gpio_pin_write_logic@_pin_config
  1550   00197A  5036               	movf	gpio_pin_intialize@_pin_config^0,w,c
  1551   00197C  6ED9               	movwf	fsr2l,c
  1552   00197E  6ADA               	clrf	fsr2h,c
  1553   001980  0E00               	movlw	0
  1554   001982  BEDF               	btfsc	indf2,7,c
  1555   001984  0E01               	movlw	1
  1556   001986  6E30               	movwf	gpio_pin_write_logic@logic^0,c
  1557   001988  ECC5  F00B         	call	_gpio_pin_write_logic	;wreg free
  1558   00198C                     l1184:
  1559                           
  1560                           ;MCAL_Layer/GPIO/hal_gpio.c: 167:     return ret ;
  1561   00198C  5038               	movf	gpio_pin_intialize@ret^0,w,c
  1562   00198E  0012               	return		;funcret
  1563   001990                     __end_of_gpio_pin_intialize:
  1564                           	callstack 0
  1565                           
  1566 ;; *************** function _gpio_pin_write_logic *****************
  1567 ;; Defined at:
  1568 ;;		line 80 in file "MCAL_Layer/GPIO/hal_gpio.c"
  1569 ;; Parameters:    Size  Location     Type
  1570 ;;  _pin_config     1    0[COMRAM] PTR const struct .
  1571 ;;		 -> led_15(1), led_7(1), led_14(1), led_6(1), 
  1572 ;;		 -> led_13(1), led_5(1), led_12(1), led_4(1), 
  1573 ;;		 -> led_11(1), led_3(1), led_10(1), led_2(1), 
  1574 ;;		 -> led_9(1), led_1(1), led_16(1), led_8(1), 
  1575 ;;  logic           1    1[COMRAM] enum E2811
  1576 ;; Auto vars:     Size  Location     Type
  1577 ;;  ret             1    0        unsigned char 
  1578 ;; Return value:  Size  Location     Type
  1579 ;;                  1    wreg      unsigned char 
  1580 ;; Registers used:
  1581 ;;		wreg, fsr2l, fsr2h, status,2, status,0, prodl, prodh
  1582 ;; Tracked objects:
  1583 ;;		On entry : 0/0
  1584 ;;		On exit  : 0/0
  1585 ;;		Unchanged: 0/0
  1586 ;; Data sizes:     COMRAM   BANK0   BANK1   BANK2   BANK3   BANK4   BANK5   BANK6   BANK7   BANK8   BANK9  BANK10  BANK1
      +1  BANK12  BANK13  BANK14  BANK15
  1587 ;;      Params:         2       0       0       0       0       0       0       0       0       0       0       0       
      +0       0       0       0       0
  1588 ;;      Locals:         0       0       0       0       0       0       0       0       0       0       0       0       
      +0       0       0       0       0
  1589 ;;      Temps:          5       0       0       0       0       0       0       0       0       0       0       0       
      +0       0       0       0       0
  1590 ;;      Totals:         7       0       0       0       0       0       0       0       0       0       0       0       
      +0       0       0       0       0
  1591 ;;Total ram usage:        7 bytes
  1592 ;; Hardware stack levels used: 1
  1593 ;; This function calls:
  1594 ;;		Nothing
  1595 ;; This function is called by:
  1596 ;;		_gpio_pin_intialize
  1597 ;;		_main
  1598 ;; This function uses a non-reentrant model
  1599 ;;
  1600                           
  1601                           	psect	text3
  1602   00178A                     __ptext3:
  1603                           	callstack 0
  1604   00178A                     _gpio_pin_write_logic:
  1605                           	callstack 30
  1606   00178A                     
  1607                           ;MCAL_Layer/GPIO/hal_gpio.c: 82:      if(((void*)0) == _pin_config || _pin_config->pin >
      +                           8 - 1)
  1608   00178A  502F               	movf	gpio_pin_write_logic@_pin_config^0,w,c
  1609   00178C  B4D8               	btfsc	status,2,c
  1610   00178E  EFCB  F00B         	goto	u371
  1611   001792  EFCD  F00B         	goto	u370
  1612   001796                     u371:
  1613   001796  EFDD  F00B         	goto	l1162
  1614   00179A                     u370:
  1615   00179A  502F               	movf	gpio_pin_write_logic@_pin_config^0,w,c
  1616   00179C  6ED9               	movwf	fsr2l,c
  1617   00179E  6ADA               	clrf	fsr2h,c
  1618   0017A0  30DF               	rrcf	223,w,c
  1619   0017A2  32E8               	rrcf	wreg,f,c
  1620   0017A4  32E8               	rrcf	wreg,f,c
  1621   0017A6  0B07               	andlw	7
  1622   0017A8  6E31               	movwf	??_gpio_pin_write_logic^0,c
  1623   0017AA  0E07               	movlw	7
  1624   0017AC  6431               	cpfsgt	??_gpio_pin_write_logic^0,c
  1625   0017AE  EFDB  F00B         	goto	u381
  1626   0017B2  EFDD  F00B         	goto	u380
  1627   0017B6                     u381:
  1628   0017B6  EF32  F00C         	goto	l1170
  1629   0017BA                     u380:
  1630   0017BA                     l1162:
  1631                           
  1632                           ;MCAL_Layer/GPIO/hal_gpio.c: 85:     }
  1633   0017BA  EF47  F00C         	goto	l67
  1634   0017BE                     l1164:
  1635                           
  1636                           ;MCAL_Layer/GPIO/hal_gpio.c: 90:                (*lat_registers[_pin_config->port] &= ~(
      +                          (uint8) 1 << _pin_config->pin)) ;
  1637   0017BE  502F               	movf	gpio_pin_write_logic@_pin_config^0,w,c
  1638   0017C0  6ED9               	movwf	fsr2l,c
  1639   0017C2  6ADA               	clrf	fsr2h,c
  1640   0017C4  30DF               	rrcf	223,w,c
  1641   0017C6  32E8               	rrcf	wreg,f,c
  1642   0017C8  32E8               	rrcf	wreg,f,c
  1643   0017CA  0B07               	andlw	7
  1644   0017CC  6E31               	movwf	??_gpio_pin_write_logic^0,c
  1645   0017CE  0E01               	movlw	1
  1646   0017D0  6E32               	movwf	(??_gpio_pin_write_logic+1)^0,c
  1647   0017D2  2A31               	incf	??_gpio_pin_write_logic^0,f,c
  1648   0017D4  EFEE  F00B         	goto	u394
  1649   0017D8                     u395:
  1650   0017D8  90D8               	bcf	status,0,c
  1651   0017DA  3632               	rlcf	(??_gpio_pin_write_logic+1)^0,f,c
  1652   0017DC                     u394:
  1653   0017DC  2E31               	decfsz	??_gpio_pin_write_logic^0,f,c
  1654   0017DE  EFEC  F00B         	goto	u395
  1655   0017E2  5032               	movf	(??_gpio_pin_write_logic+1)^0,w,c
  1656   0017E4  0AFF               	xorlw	255
  1657   0017E6  6E33               	movwf	(??_gpio_pin_write_logic+2)^0,c
  1658   0017E8  502F               	movf	gpio_pin_write_logic@_pin_config^0,w,c
  1659   0017EA  6ED9               	movwf	fsr2l,c
  1660   0017EC  6ADA               	clrf	fsr2h,c
  1661   0017EE  50DF               	movf	223,w,c
  1662   0017F0  0B07               	andlw	7
  1663   0017F2  0D02               	mullw	2
  1664   0017F4  50F3               	movf	243,w,c
  1665   0017F6  0F0B               	addlw	low _lat_registers
  1666   0017F8  6ED9               	movwf	fsr2l,c
  1667   0017FA  6ADA               	clrf	fsr2h,c
  1668   0017FC  CFDE F034          	movff	postinc2,??_gpio_pin_write_logic+3
  1669   001800  CFDD F035          	movff	postdec2,??_gpio_pin_write_logic+4
  1670   001804  C034  FFD9         	movff	??_gpio_pin_write_logic+3,fsr2l
  1671   001808  C035  FFDA         	movff	??_gpio_pin_write_logic+4,fsr2h
  1672   00180C  5033               	movf	(??_gpio_pin_write_logic+2)^0,w,c
  1673   00180E  16DF               	andwf	indf2,f,c
  1674                           
  1675                           ;MCAL_Layer/GPIO/hal_gpio.c: 91:                break;
  1676   001810  EF47  F00C         	goto	l67
  1677   001814                     l1166:
  1678                           
  1679                           ;MCAL_Layer/GPIO/hal_gpio.c: 93:                (*lat_registers[_pin_config->port] |= ((
      +                          uint8) 1 << _pin_config->pin)) ;
  1680   001814  502F               	movf	gpio_pin_write_logic@_pin_config^0,w,c
  1681   001816  6ED9               	movwf	fsr2l,c
  1682   001818  6ADA               	clrf	fsr2h,c
  1683   00181A  30DF               	rrcf	223,w,c
  1684   00181C  32E8               	rrcf	wreg,f,c
  1685   00181E  32E8               	rrcf	wreg,f,c
  1686   001820  0B07               	andlw	7
  1687   001822  6E31               	movwf	??_gpio_pin_write_logic^0,c
  1688   001824  0E01               	movlw	1
  1689   001826  6E32               	movwf	(??_gpio_pin_write_logic+1)^0,c
  1690   001828  2A31               	incf	??_gpio_pin_write_logic^0,f,c
  1691   00182A  EF19  F00C         	goto	u404
  1692   00182E                     u405:
  1693   00182E  90D8               	bcf	status,0,c
  1694   001830  3632               	rlcf	(??_gpio_pin_write_logic+1)^0,f,c
  1695   001832                     u404:
  1696   001832  2E31               	decfsz	??_gpio_pin_write_logic^0,f,c
  1697   001834  EF17  F00C         	goto	u405
  1698   001838  502F               	movf	gpio_pin_write_logic@_pin_config^0,w,c
  1699   00183A  6ED9               	movwf	fsr2l,c
  1700   00183C  6ADA               	clrf	fsr2h,c
  1701   00183E  50DF               	movf	223,w,c
  1702   001840  0B07               	andlw	7
  1703   001842  0D02               	mullw	2
  1704   001844  50F3               	movf	243,w,c
  1705   001846  0F0B               	addlw	low _lat_registers
  1706   001848  6ED9               	movwf	fsr2l,c
  1707   00184A  6ADA               	clrf	fsr2h,c
  1708   00184C  CFDE F033          	movff	postinc2,??_gpio_pin_write_logic+2
  1709   001850  CFDD F034          	movff	postdec2,??_gpio_pin_write_logic+3
  1710   001854  C033  FFD9         	movff	??_gpio_pin_write_logic+2,fsr2l
  1711   001858  C034  FFDA         	movff	??_gpio_pin_write_logic+3,fsr2h
  1712   00185C  5032               	movf	(??_gpio_pin_write_logic+1)^0,w,c
  1713   00185E  12DF               	iorwf	indf2,f,c
  1714                           
  1715                           ;MCAL_Layer/GPIO/hal_gpio.c: 94:                break;
  1716   001860  EF47  F00C         	goto	l67
  1717   001864                     l1170:
  1718   001864  5030               	movf	gpio_pin_write_logic@logic^0,w,c
  1719   001866  6E31               	movwf	??_gpio_pin_write_logic^0,c
  1720   001868  6A32               	clrf	(??_gpio_pin_write_logic+1)^0,c
  1721                           
  1722                           ; Switch on 2 bytes has been partitioned into a top level switch of size 1, and 1 sub-sw
      +                          itches
  1723                           ; Switch size 1, requested type "simple"
  1724                           ; Number of cases is 1, Range of values is 0 to 0
  1725                           ; switch strategies available:
  1726                           ; Name         Instructions Cycles
  1727                           ; simple_byte            4     3 (average)
  1728                           ;	Chosen strategy is simple_byte
  1729   00186A  5032               	movf	(??_gpio_pin_write_logic+1)^0,w,c
  1730   00186C  0A00               	xorlw	0	; case 0
  1731   00186E  B4D8               	btfsc	status,2,c
  1732   001870  EF3C  F00C         	goto	l1344
  1733   001874  EFDD  F00B         	goto	l1162
  1734   001878                     l1344:
  1735                           
  1736                           ; Switch size 1, requested type "simple"
  1737                           ; Number of cases is 2, Range of values is 0 to 1
  1738                           ; switch strategies available:
  1739                           ; Name         Instructions Cycles
  1740                           ; simple_byte            7     4 (average)
  1741                           ;	Chosen strategy is simple_byte
  1742   001878  5031               	movf	??_gpio_pin_write_logic^0,w,c
  1743   00187A  0A00               	xorlw	0	; case 0
  1744   00187C  B4D8               	btfsc	status,2,c
  1745   00187E  EFDF  F00B         	goto	l1164
  1746   001882  0A01               	xorlw	1	; case 1
  1747   001884  B4D8               	btfsc	status,2,c
  1748   001886  EF0A  F00C         	goto	l1166
  1749   00188A  EFDD  F00B         	goto	l1162
  1750   00188E                     l67:
  1751   00188E  0012               	return		;funcret
  1752   001890                     __end_of_gpio_pin_write_logic:
  1753                           	callstack 0
  1754                           
  1755 ;; *************** function _gpio_pin_direction_intialize *****************
  1756 ;; Defined at:
  1757 ;;		line 26 in file "MCAL_Layer/GPIO/hal_gpio.c"
  1758 ;; Parameters:    Size  Location     Type
  1759 ;;  _pin_config     1    0[COMRAM] PTR const struct .
  1760 ;;		 -> led_15(1), led_7(1), led_14(1), led_6(1), 
  1761 ;;		 -> led_13(1), led_5(1), led_12(1), led_4(1), 
  1762 ;;		 -> led_11(1), led_3(1), led_10(1), led_2(1), 
  1763 ;;		 -> led_9(1), led_1(1), led_16(1), led_8(1), 
  1764 ;; Auto vars:     Size  Location     Type
  1765 ;;  ret             1    0        unsigned char 
  1766 ;; Return value:  Size  Location     Type
  1767 ;;                  1    wreg      unsigned char 
  1768 ;; Registers used:
  1769 ;;		wreg, fsr2l, fsr2h, status,2, status,0, prodl, prodh
  1770 ;; Tracked objects:
  1771 ;;		On entry : 0/0
  1772 ;;		On exit  : 0/0
  1773 ;;		Unchanged: 0/0
  1774 ;; Data sizes:     COMRAM   BANK0   BANK1   BANK2   BANK3   BANK4   BANK5   BANK6   BANK7   BANK8   BANK9  BANK10  BANK1
      +1  BANK12  BANK13  BANK14  BANK15
  1775 ;;      Params:         1       0       0       0       0       0       0       0       0       0       0       0       
      +0       0       0       0       0
  1776 ;;      Locals:         0       0       0       0       0       0       0       0       0       0       0       0       
      +0       0       0       0       0
  1777 ;;      Temps:          5       0       0       0       0       0       0       0       0       0       0       0       
      +0       0       0       0       0
  1778 ;;      Totals:         6       0       0       0       0       0       0       0       0       0       0       0       
      +0       0       0       0       0
  1779 ;;Total ram usage:        6 bytes
  1780 ;; Hardware stack levels used: 1
  1781 ;; This function calls:
  1782 ;;		Nothing
  1783 ;; This function is called by:
  1784 ;;		_gpio_pin_intialize
  1785 ;; This function uses a non-reentrant model
  1786 ;;
  1787                           
  1788                           	psect	text4
  1789   00166E                     __ptext4:
  1790                           	callstack 0
  1791   00166E                     _gpio_pin_direction_intialize:
  1792                           	callstack 28
  1793   00166E                     
  1794                           ;MCAL_Layer/GPIO/hal_gpio.c: 28:     if(((void*)0) == _pin_config || _pin_config->pin > 
      +                          8 - 1)
  1795   00166E  502F               	movf	gpio_pin_direction_intialize@_pin_config^0,w,c
  1796   001670  B4D8               	btfsc	status,2,c
  1797   001672  EF3D  F00B         	goto	u311
  1798   001676  EF3F  F00B         	goto	u310
  1799   00167A                     u311:
  1800   00167A  EF4F  F00B         	goto	l1144
  1801   00167E                     u310:
  1802   00167E  502F               	movf	gpio_pin_direction_intialize@_pin_config^0,w,c
  1803   001680  6ED9               	movwf	fsr2l,c
  1804   001682  6ADA               	clrf	fsr2h,c
  1805   001684  30DF               	rrcf	223,w,c
  1806   001686  32E8               	rrcf	wreg,f,c
  1807   001688  32E8               	rrcf	wreg,f,c
  1808   00168A  0B07               	andlw	7
  1809   00168C  6E30               	movwf	??_gpio_pin_direction_intialize^0,c
  1810   00168E  0E07               	movlw	7
  1811   001690  6430               	cpfsgt	??_gpio_pin_direction_intialize^0,c
  1812   001692  EF4D  F00B         	goto	u321
  1813   001696  EF4F  F00B         	goto	u320
  1814   00169A                     u321:
  1815   00169A  EFA4  F00B         	goto	l1152
  1816   00169E                     u320:
  1817   00169E                     l1144:
  1818                           
  1819                           ;MCAL_Layer/GPIO/hal_gpio.c: 31:     }
  1820   00169E  EFC4  F00B         	goto	l48
  1821   0016A2                     l1146:
  1822                           
  1823                           ;MCAL_Layer/GPIO/hal_gpio.c: 37:             (*tris_registers[_pin_config->port] &= ~((u
      +                          int8) 1 << _pin_config->pin));
  1824   0016A2  502F               	movf	gpio_pin_direction_intialize@_pin_config^0,w,c
  1825   0016A4  6ED9               	movwf	fsr2l,c
  1826   0016A6  6ADA               	clrf	fsr2h,c
  1827   0016A8  30DF               	rrcf	223,w,c
  1828   0016AA  32E8               	rrcf	wreg,f,c
  1829   0016AC  32E8               	rrcf	wreg,f,c
  1830   0016AE  0B07               	andlw	7
  1831   0016B0  6E30               	movwf	??_gpio_pin_direction_intialize^0,c
  1832   0016B2  0E01               	movlw	1
  1833   0016B4  6E31               	movwf	(??_gpio_pin_direction_intialize+1)^0,c
  1834   0016B6  2A30               	incf	??_gpio_pin_direction_intialize^0,f,c
  1835   0016B8  EF60  F00B         	goto	u334
  1836   0016BC                     u335:
  1837   0016BC  90D8               	bcf	status,0,c
  1838   0016BE  3631               	rlcf	(??_gpio_pin_direction_intialize+1)^0,f,c
  1839   0016C0                     u334:
  1840   0016C0  2E30               	decfsz	??_gpio_pin_direction_intialize^0,f,c
  1841   0016C2  EF5E  F00B         	goto	u335
  1842   0016C6  5031               	movf	(??_gpio_pin_direction_intialize+1)^0,w,c
  1843   0016C8  0AFF               	xorlw	255
  1844   0016CA  6E32               	movwf	(??_gpio_pin_direction_intialize+2)^0,c
  1845   0016CC  502F               	movf	gpio_pin_direction_intialize@_pin_config^0,w,c
  1846   0016CE  6ED9               	movwf	fsr2l,c
  1847   0016D0  6ADA               	clrf	fsr2h,c
  1848   0016D2  50DF               	movf	223,w,c
  1849   0016D4  0B07               	andlw	7
  1850   0016D6  0D02               	mullw	2
  1851   0016D8  50F3               	movf	243,w,c
  1852   0016DA  0F15               	addlw	low _tris_registers
  1853   0016DC  6ED9               	movwf	fsr2l,c
  1854   0016DE  6ADA               	clrf	fsr2h,c
  1855   0016E0  CFDE F033          	movff	postinc2,??_gpio_pin_direction_intialize+3
  1856   0016E4  CFDD F034          	movff	postdec2,??_gpio_pin_direction_intialize+4
  1857   0016E8  C033  FFD9         	movff	??_gpio_pin_direction_intialize+3,fsr2l
  1858   0016EC  C034  FFDA         	movff	??_gpio_pin_direction_intialize+4,fsr2h
  1859   0016F0  5032               	movf	(??_gpio_pin_direction_intialize+2)^0,w,c
  1860   0016F2  16DF               	andwf	indf2,f,c
  1861                           
  1862                           ;MCAL_Layer/GPIO/hal_gpio.c: 38:             break;
  1863   0016F4  EFC4  F00B         	goto	l48
  1864   0016F8                     l1148:
  1865                           
  1866                           ;MCAL_Layer/GPIO/hal_gpio.c: 40:             (*tris_registers[_pin_config->port] |= ((ui
      +                          nt8) 1 << _pin_config->pin));
  1867   0016F8  502F               	movf	gpio_pin_direction_intialize@_pin_config^0,w,c
  1868   0016FA  6ED9               	movwf	fsr2l,c
  1869   0016FC  6ADA               	clrf	fsr2h,c
  1870   0016FE  30DF               	rrcf	223,w,c
  1871   001700  32E8               	rrcf	wreg,f,c
  1872   001702  32E8               	rrcf	wreg,f,c
  1873   001704  0B07               	andlw	7
  1874   001706  6E30               	movwf	??_gpio_pin_direction_intialize^0,c
  1875   001708  0E01               	movlw	1
  1876   00170A  6E31               	movwf	(??_gpio_pin_direction_intialize+1)^0,c
  1877   00170C  2A30               	incf	??_gpio_pin_direction_intialize^0,f,c
  1878   00170E  EF8B  F00B         	goto	u344
  1879   001712                     u345:
  1880   001712  90D8               	bcf	status,0,c
  1881   001714  3631               	rlcf	(??_gpio_pin_direction_intialize+1)^0,f,c
  1882   001716                     u344:
  1883   001716  2E30               	decfsz	??_gpio_pin_direction_intialize^0,f,c
  1884   001718  EF89  F00B         	goto	u345
  1885   00171C  502F               	movf	gpio_pin_direction_intialize@_pin_config^0,w,c
  1886   00171E  6ED9               	movwf	fsr2l,c
  1887   001720  6ADA               	clrf	fsr2h,c
  1888   001722  50DF               	movf	223,w,c
  1889   001724  0B07               	andlw	7
  1890   001726  0D02               	mullw	2
  1891   001728  50F3               	movf	243,w,c
  1892   00172A  0F15               	addlw	low _tris_registers
  1893   00172C  6ED9               	movwf	fsr2l,c
  1894   00172E  6ADA               	clrf	fsr2h,c
  1895   001730  CFDE F032          	movff	postinc2,??_gpio_pin_direction_intialize+2
  1896   001734  CFDD F033          	movff	postdec2,??_gpio_pin_direction_intialize+3
  1897   001738  C032  FFD9         	movff	??_gpio_pin_direction_intialize+2,fsr2l
  1898   00173C  C033  FFDA         	movff	??_gpio_pin_direction_intialize+3,fsr2h
  1899   001740  5031               	movf	(??_gpio_pin_direction_intialize+1)^0,w,c
  1900   001742  12DF               	iorwf	indf2,f,c
  1901                           
  1902                           ;MCAL_Layer/GPIO/hal_gpio.c: 41:             break;
  1903   001744  EFC4  F00B         	goto	l48
  1904   001748                     l1152:
  1905   001748  502F               	movf	gpio_pin_direction_intialize@_pin_config^0,w,c
  1906   00174A  6ED9               	movwf	fsr2l,c
  1907   00174C  6ADA               	clrf	fsr2h,c
  1908   00174E  BCDF               	btfsc	indf2,6,c
  1909   001750  EFAC  F00B         	goto	u351
  1910   001754  EFAF  F00B         	goto	u350
  1911   001758                     u351:
  1912   001758  0E01               	movlw	1
  1913   00175A  EFB0  F00B         	goto	u360
  1914   00175E                     u350:
  1915   00175E  0E00               	movlw	0
  1916   001760                     u360:
  1917   001760  6E30               	movwf	??_gpio_pin_direction_intialize^0,c
  1918   001762  6A31               	clrf	(??_gpio_pin_direction_intialize+1)^0,c
  1919                           
  1920                           ; Switch on 2 bytes has been partitioned into a top level switch of size 1, and 1 sub-sw
      +                          itches
  1921                           ; Switch size 1, requested type "simple"
  1922                           ; Number of cases is 1, Range of values is 0 to 0
  1923                           ; switch strategies available:
  1924                           ; Name         Instructions Cycles
  1925                           ; simple_byte            4     3 (average)
  1926                           ;	Chosen strategy is simple_byte
  1927   001764  5031               	movf	(??_gpio_pin_direction_intialize+1)^0,w,c
  1928   001766  0A00               	xorlw	0	; case 0
  1929   001768  B4D8               	btfsc	status,2,c
  1930   00176A  EFB9  F00B         	goto	l1346
  1931   00176E  EF4F  F00B         	goto	l1144
  1932   001772                     l1346:
  1933                           
  1934                           ; Switch size 1, requested type "simple"
  1935                           ; Number of cases is 2, Range of values is 0 to 1
  1936                           ; switch strategies available:
  1937                           ; Name         Instructions Cycles
  1938                           ; simple_byte            7     4 (average)
  1939                           ;	Chosen strategy is simple_byte
  1940   001772  5030               	movf	??_gpio_pin_direction_intialize^0,w,c
  1941   001774  0A00               	xorlw	0	; case 0
  1942   001776  B4D8               	btfsc	status,2,c
  1943   001778  EF51  F00B         	goto	l1146
  1944   00177C  0A01               	xorlw	1	; case 1
  1945   00177E  B4D8               	btfsc	status,2,c
  1946   001780  EF7C  F00B         	goto	l1148
  1947   001784  EF4F  F00B         	goto	l1144
  1948   001788                     l48:
  1949   001788  0012               	return		;funcret
  1950   00178A                     __end_of_gpio_pin_direction_intialize:
  1951                           	callstack 0
  1952                           
  1953                           	psect	smallconst
  1954   001000                     __psmallconst:
  1955                           	callstack 0
  1956   001000  00                 	db	0
  1957   001001  00                 	db	0	; dummy byte at the end
  1958   000000                     
  1959                           	psect	rparam
  1960   000000                     
  1961                           	psect	config
  1962                           
  1963                           ; Padding undefined space
  1964   300000                     	org	3145728
  1965   300000  FF                 	db	255
  1966                           
  1967                           ;Config register CONFIG1H @ 0x300001
  1968                           ;	Oscillator Selection bits
  1969                           ;	OSC = HS, HS oscillator
  1970                           ;	Fail-Safe Clock Monitor Enable bit
  1971                           ;	FCMEN = OFF, Fail-Safe Clock Monitor disabled
  1972                           ;	Internal/External Oscillator Switchover bit
  1973                           ;	IESO = OFF, Oscillator Switchover mode disabled
  1974   300001                     	org	3145729
  1975   300001  02                 	db	2
  1976                           
  1977                           ;Config register CONFIG2L @ 0x300002
  1978                           ;	Power-up Timer Enable bit
  1979                           ;	PWRT = OFF, PWRT disabled
  1980                           ;	Brown-out Reset Enable bits
  1981                           ;	BOREN = OFF, Brown-out Reset disabled in hardware and software
  1982                           ;	Brown Out Reset Voltage bits
  1983                           ;	BORV = 1, 
  1984   300002                     	org	3145730
  1985   300002  09                 	db	9
  1986                           
  1987                           ;Config register CONFIG2H @ 0x300003
  1988                           ;	Watchdog Timer Enable bit
  1989                           ;	WDT = OFF, WDT disabled (control is placed on the SWDTEN bit)
  1990                           ;	Watchdog Timer Postscale Select bits
  1991                           ;	WDTPS = 32768, 1:32768
  1992   300003                     	org	3145731
  1993   300003  1E                 	db	30
  1994                           
  1995                           ; Padding undefined space
  1996   300004                     	org	3145732
  1997   300004  FF                 	db	255
  1998                           
  1999                           ;Config register CONFIG3H @ 0x300005
  2000                           ;	CCP2 MUX bit
  2001                           ;	CCP2MX = PORTC, CCP2 input/output is multiplexed with RC1
  2002                           ;	PORTB A/D Enable bit
  2003                           ;	PBADEN = OFF, PORTB<4:0> pins are configured as digital I/O on Reset
  2004                           ;	Low-Power Timer1 Oscillator Enable bit
  2005                           ;	LPT1OSC = OFF, Timer1 configured for higher power operation
  2006                           ;	MCLR Pin Enable bit
  2007                           ;	MCLRE = ON, MCLR pin enabled; RE3 input pin disabled
  2008   300005                     	org	3145733
  2009   300005  81                 	db	129
  2010                           
  2011                           ;Config register CONFIG4L @ 0x300006
  2012                           ;	Stack Full/Underflow Reset Enable bit
  2013                           ;	STVREN = ON, Stack full/underflow will cause Reset
  2014                           ;	Single-Supply ICSP Enable bit
  2015                           ;	LVP = OFF, Single-Supply ICSP disabled
  2016                           ;	Extended Instruction Set Enable bit
  2017                           ;	XINST = OFF, Instruction set extension and Indexed Addressing mode disabled (Legacy mo
      +                          de)
  2018                           ;	Background Debugger Enable bit
  2019                           ;	DEBUG = 0x1, unprogrammed default
  2020   300006                     	org	3145734
  2021   300006  81                 	db	129
  2022                           
  2023                           ; Padding undefined space
  2024   300007                     	org	3145735
  2025   300007  FF                 	db	255
  2026                           
  2027                           ;Config register CONFIG5L @ 0x300008
  2028                           ;	Code Protection bit
  2029                           ;	CP0 = OFF, Block 0 (000800-003FFFh) not code-protected
  2030                           ;	Code Protection bit
  2031                           ;	CP1 = OFF, Block 1 (004000-007FFFh) not code-protected
  2032                           ;	Code Protection bit
  2033                           ;	CP2 = OFF, Block 2 (008000-00BFFFh) not code-protected
  2034                           ;	Code Protection bit
  2035                           ;	CP3 = OFF, Block 3 (00C000-00FFFFh) not code-protected
  2036   300008                     	org	3145736
  2037   300008  0F                 	db	15
  2038                           
  2039                           ;Config register CONFIG5H @ 0x300009
  2040                           ;	Boot Block Code Protection bit
  2041                           ;	CPB = OFF, Boot block (000000-0007FFh) not code-protected
  2042                           ;	Data EEPROM Code Protection bit
  2043                           ;	CPD = OFF, Data EEPROM not code-protected
  2044   300009                     	org	3145737
  2045   300009  C0                 	db	192
  2046                           
  2047                           ;Config register CONFIG6L @ 0x30000A
  2048                           ;	Write Protection bit
  2049                           ;	WRT0 = OFF, Block 0 (000800-003FFFh) not write-protected
  2050                           ;	Write Protection bit
  2051                           ;	WRT1 = OFF, Block 1 (004000-007FFFh) not write-protected
  2052                           ;	Write Protection bit
  2053                           ;	WRT2 = OFF, Block 2 (008000-00BFFFh) not write-protected
  2054                           ;	Write Protection bit
  2055                           ;	WRT3 = OFF, Block 3 (00C000-00FFFFh) not write-protected
  2056   30000A                     	org	3145738
  2057   30000A  0F                 	db	15
  2058                           
  2059                           ;Config register CONFIG6H @ 0x30000B
  2060                           ;	Configuration Register Write Protection bit
  2061                           ;	WRTC = OFF, Configuration registers (300000-3000FFh) not write-protected
  2062                           ;	Boot Block Write Protection bit
  2063                           ;	WRTB = OFF, Boot Block (000000-0007FFh) not write-protected
  2064                           ;	Data EEPROM Write Protection bit
  2065                           ;	WRTD = OFF, Data EEPROM not write-protected
  2066   30000B                     	org	3145739
  2067   30000B  E0                 	db	224
  2068                           
  2069                           ;Config register CONFIG7L @ 0x30000C
  2070                           ;	Table Read Protection bit
  2071                           ;	EBTR0 = OFF, Block 0 (000800-003FFFh) not protected from table reads executed in other
      +                           blocks
  2072                           ;	Table Read Protection bit
  2073                           ;	EBTR1 = OFF, Block 1 (004000-007FFFh) not protected from table reads executed in other
      +                           blocks
  2074                           ;	Table Read Protection bit
  2075                           ;	EBTR2 = OFF, Block 2 (008000-00BFFFh) not protected from table reads executed in other
      +                           blocks
  2076                           ;	Table Read Protection bit
  2077                           ;	EBTR3 = OFF, Block 3 (00C000-00FFFFh) not protected from table reads executed in other
      +                           blocks
  2078   30000C                     	org	3145740
  2079   30000C  0F                 	db	15
  2080                           
  2081                           ;Config register CONFIG7H @ 0x30000D
  2082                           ;	Boot Block Table Read Protection bit
  2083                           ;	EBTRB = OFF, Boot Block (000000-0007FFh) not protected from table reads executed in ot
      +                          her blocks
  2084   30000D                     	org	3145741
  2085   30000D  40                 	db	64
  2086                           tosu	equ	0xFFF
  2087                           tosh	equ	0xFFE
  2088                           tosl	equ	0xFFD
  2089                           stkptr	equ	0xFFC
  2090                           pclatu	equ	0xFFB
  2091                           pclath	equ	0xFFA
  2092                           pcl	equ	0xFF9
  2093                           tblptru	equ	0xFF8
  2094                           tblptrh	equ	0xFF7
  2095                           tblptrl	equ	0xFF6
  2096                           tablat	equ	0xFF5
  2097                           prodh	equ	0xFF4
  2098                           prodl	equ	0xFF3
  2099                           indf0	equ	0xFEF
  2100                           postinc0	equ	0xFEE
  2101                           postdec0	equ	0xFED
  2102                           preinc0	equ	0xFEC
  2103                           plusw0	equ	0xFEB
  2104                           fsr0h	equ	0xFEA
  2105                           fsr0l	equ	0xFE9
  2106                           wreg	equ	0xFE8
  2107                           indf1	equ	0xFE7
  2108                           postinc1	equ	0xFE6
  2109                           postdec1	equ	0xFE5
  2110                           preinc1	equ	0xFE4
  2111                           plusw1	equ	0xFE3
  2112                           fsr1h	equ	0xFE2
  2113                           fsr1l	equ	0xFE1
  2114                           bsr	equ	0xFE0
  2115                           indf2	equ	0xFDF
  2116                           postinc2	equ	0xFDE
  2117                           postdec2	equ	0xFDD
  2118                           preinc2	equ	0xFDC
  2119                           plusw2	equ	0xFDB
  2120                           fsr2h	equ	0xFDA
  2121                           fsr2l	equ	0xFD9
  2122                           status	equ	0xFD8

Data Sizes:
    Strings     0
    Constant    0
    Data        46
    BSS         0
    Persistent  1
    Stack       0

Auto Spaces:
    Space          Size  Autos    Used
    COMRAM          127     12      59
    BANK0           128      0       0
    BANK1           256      0       0
    BANK2           256      0       0
    BANK3           256      0       0
    BANK4           256      0       0
    BANK5           256      0       0
    BANK6           256      0       0
    BANK7           256      0       0
    BANK8           256      0       0
    BANK9           256      0       0
    BANK10          256      0       0
    BANK11          256      0       0
    BANK12          256      0       0
    BANK13          256      0       0
    BANK14          256      0       0
    BANK15          128      0       0

Pointer List with Targets:

    gpio_pin_direction_intialize@_pin_config	PTR const struct . size(1) Largest target is 1
		 -> led_1(COMRAM[1]), led_10(COMRAM[1]), led_11(COMRAM[1]), led_12(COMRAM[1]), 
		 -> led_13(COMRAM[1]), led_14(COMRAM[1]), led_15(COMRAM[1]), led_16(COMRAM[1]), 
		 -> led_2(COMRAM[1]), led_3(COMRAM[1]), led_4(COMRAM[1]), led_5(COMRAM[1]), 
		 -> led_6(COMRAM[1]), led_7(COMRAM[1]), led_8(COMRAM[1]), led_9(COMRAM[1]), 

    gpio_pin_intialize@_pin_config	PTR const struct . size(1) Largest target is 1
		 -> led_1(COMRAM[1]), led_10(COMRAM[1]), led_11(COMRAM[1]), led_12(COMRAM[1]), 
		 -> led_13(COMRAM[1]), led_14(COMRAM[1]), led_15(COMRAM[1]), led_16(COMRAM[1]), 
		 -> led_2(COMRAM[1]), led_3(COMRAM[1]), led_4(COMRAM[1]), led_5(COMRAM[1]), 
		 -> led_6(COMRAM[1]), led_7(COMRAM[1]), led_8(COMRAM[1]), led_9(COMRAM[1]), 

    gpio_pin_write_logic@_pin_config	PTR const struct . size(1) Largest target is 1
		 -> led_1(COMRAM[1]), led_10(COMRAM[1]), led_11(COMRAM[1]), led_12(COMRAM[1]), 
		 -> led_13(COMRAM[1]), led_14(COMRAM[1]), led_15(COMRAM[1]), led_16(COMRAM[1]), 
		 -> led_2(COMRAM[1]), led_3(COMRAM[1]), led_4(COMRAM[1]), led_5(COMRAM[1]), 
		 -> led_6(COMRAM[1]), led_7(COMRAM[1]), led_8(COMRAM[1]), led_9(COMRAM[1]), 

    lat_registers	PTR volatile unsigned char [5] size(2) Largest target is 1
		 -> LATA(BITBIGSFRll[1]), LATB(BITBIGSFRlh[1]), LATC(BITBIGSFRlh[1]), LATD(BITBIGSFRlh[1]), 
		 -> LATE(BITBIGSFRlh[1]), 

    port_registers	PTR volatile unsigned char [5] size(2) Largest target is 1
		 -> PORTA(BITBIGSFRll[1]), PORTB(BITBIGSFRll[1]), PORTC(BITBIGSFRll[1]), PORTD(BITBIGSFRll[1]), 
		 -> PORTE(BITBIGSFRll[1]), 

    tris_registers	PTR volatile unsigned char [5] size(2) Largest target is 1
		 -> TRISA(BITBIGSFRll[1]), TRISB(BITBIGSFRh[1]), TRISC(BITBIGSFRh[1]), TRISD(BITBIGSFRh[1]), 
		 -> TRISE(BITBIGSFRh[1]), 


Critical Paths under _main in COMRAM

    _application_intialize->_gpio_pin_intialize
    _gpio_pin_intialize->_gpio_pin_write_logic

Critical Paths under _main in BANK0

    None.

Critical Paths under _main in BANK1

    None.

Critical Paths under _main in BANK2

    None.

Critical Paths under _main in BANK3

    None.

Critical Paths under _main in BANK4

    None.

Critical Paths under _main in BANK5

    None.

Critical Paths under _main in BANK6

    None.

Critical Paths under _main in BANK7

    None.

Critical Paths under _main in BANK8

    None.

Critical Paths under _main in BANK9

    None.

Critical Paths under _main in BANK10

    None.

Critical Paths under _main in BANK11

    None.

Critical Paths under _main in BANK12

    None.

Critical Paths under _main in BANK13

    None.

Critical Paths under _main in BANK14

    None.

Critical Paths under _main in BANK15

    None.

Call Graph Tables:

 ---------------------------------------------------------------------------------
 (Depth) Function   	        Calls       Base Space   Used Autos Params    Refs
 ---------------------------------------------------------------------------------
 (0) _main                                                 2     2      0   31403
                                             10 COMRAM     2     2      0
              _application_intialize
               _gpio_pin_write_logic
 ---------------------------------------------------------------------------------
 (1) _application_intialize                                0     0      0   16496
                 _gpio_pin_intialize
 ---------------------------------------------------------------------------------
 (2) _gpio_pin_intialize                                   3     2      1   16496
                                              7 COMRAM     3     2      1
       _gpio_pin_direction_intialize
               _gpio_pin_write_logic
 ---------------------------------------------------------------------------------
 (1) _gpio_pin_write_logic                                 8     6      2   14907
                                              0 COMRAM     7     5      2
 ---------------------------------------------------------------------------------
 (3) _gpio_pin_direction_intialize                         7     6      1     239
                                              0 COMRAM     6     5      1
 ---------------------------------------------------------------------------------
 Estimated maximum stack depth 3
 ---------------------------------------------------------------------------------

 Call Graph Graphs:

 _main (ROOT)
   _application_intialize
     _gpio_pin_intialize
       _gpio_pin_direction_intialize
       _gpio_pin_write_logic
   _gpio_pin_write_logic

 Address spaces:
Name               Size   Autos  Total    Cost      Usage
BIGRAM             F7F      0       0      40        0.0%
EEDATA             400      0       0       0        0.0%
BITBANK14          100      0       0      32        0.0%
BANK14             100      0       0      33        0.0%
BITBANK13          100      0       0      30        0.0%
BANK13             100      0       0      31        0.0%
BITBANK12          100      0       0      28        0.0%
BANK12             100      0       0      29        0.0%
BITBANK11          100      0       0      26        0.0%
BANK11             100      0       0      27        0.0%
BITBANK10          100      0       0      24        0.0%
BANK10             100      0       0      25        0.0%
BITBANK9           100      0       0      22        0.0%
BANK9              100      0       0      23        0.0%
BITBANK8           100      0       0      20        0.0%
BANK8              100      0       0      21        0.0%
BITBANK7           100      0       0      18        0.0%
BANK7              100      0       0      19        0.0%
BITBANK6           100      0       0      16        0.0%
BANK6              100      0       0      17        0.0%
BITBANK5           100      0       0      14        0.0%
BANK5              100      0       0      15        0.0%
BITBANK4           100      0       0      12        0.0%
BANK4              100      0       0      13        0.0%
BITBANK3           100      0       0      10        0.0%
BANK3              100      0       0      11        0.0%
BITBANK2           100      0       0       8        0.0%
BANK2              100      0       0       9        0.0%
BITBANK1           100      0       0       6        0.0%
BANK1              100      0       0       7        0.0%
BITBANK15           80      0       0      34        0.0%
BANK15              80      0       0      35        0.0%
BITBANK0            80      0       0       4        0.0%
BANK0               80      0       0       5        0.0%
BITCOMRAM           7F      0       0       0        0.0%
COMRAM              7F      C      3B       1       46.5%
BITBIGSFRh          69      0       0      36        0.0%
BITBIGSFRlh          4      0       0      37        0.0%
BITBIGSFRll          4      0       0      38        0.0%
BIGSFR               0      0       0     200        0.0%
BITSFR               0      0       0     200        0.0%
SFR                  0      0       0     200        0.0%
STACK                0      0       0       2        0.0%
NULL                 0      0       0       0        0.0%
ABS                  0      0      3B      39        0.0%
DATA                 0      0      3B       3        0.0%
CODE                 0      0       0       0        0.0%


Microchip Technology PIC18 Macro Assembler V2.45 build 20230818022343 
Symbol Table                                                                                   Thu Sep 21 19:07:33 2023

                                     l48 1788                                       l67 188E  
                                     l88 198E                                      l160 1006  
                                    l166 1930                                      u310 167E  
                                    u311 167A                                      u320 169E  
                                    u321 169A                                      u410 1946  
                                    u411 1942                                      u404 1832  
                                    u420 1966                                      u405 182E  
                                    u421 1962                                      u350 175E  
                                    u334 16C0                                      u351 1758  
                                    u335 16BC                                      u360 1760  
                                    u344 1716                                      u345 1712  
                                    u370 179A                                      u371 1796  
                                    u507 122A                                      u380 17BA  
                                    u381 17B6                                      u517 1270  
                                    u437 1040                                      u607 14EA  
                                    u527 12B8                                      u447 1086  
                                    u617 1528                                      u537 1300  
                                    u457 10CC                                      u394 17DC  
                                    u395 17D8                                      u627 1566  
                                    u547 1348                                      u467 1112  
                                    u637 15A4                                      u557 1390  
                                    u477 1158                                      u647 15E2  
                                    u567 13D8                                      u487 119E  
                                    u657 1620                                      u577 1420  
                                    u497 11E4                                      u667 165E  
                                    u587 1468                                      u597 14AC  
                                    _ret 003B                                      wreg 0FE8  
                                   l1200 1070                                     l1210 10F0  
                                   l1202 107C                                     l1140 166E  
                                   l1300 1522                                     l1220 1170  
                                   l1212 10FC                                     l1204 10C2  
                                   l1142 167E                                     l1310 1560  
                                   l1302 1530                                     l1230 11F0  
                                   l1222 117C                                     l1214 1108  
                                   l1206 10D8                                     l1152 1748  
                                   l1144 169E                                     l1160 179A  
                                   l1320 15D0                                     l1312 159E  
                                   l1304 153C                                     l1240 1266  
                                   l1232 11FC                                     l1224 1188  
                                   l1216 114E                                     l1208 10E4  
                                   l1146 16A2                                     l1170 1864  
                                   l1162 17BA                                     l1330 1640  
                                   l1322 15DC                                     l1314 15AC  
                                   l1306 1548                                     l1250 12AE  
                                   l1242 127E                                     l1234 1208  
                                   l1226 1194                                     l1218 1164  
                                   l1148 16F8                                     l1164 17BE  
                                   l1180 1966                                     l1332 164C  
                                   l1324 161A                                     l1316 15B8  
                                   l1308 1554                                     l1260 1332  
                                   l1252 12F6                                     l1244 128A  
                                   l1236 1214                                     l1228 11DA  
                                   l1166 1814                                     l1158 178A  
                                   l1182 196E                                     l1334 1658  
                                   l1326 1628                                     l1318 15C4  
                                   l1270 13B6                                     l1262 133E  
                                   l1254 130E                                     l1246 1296  
                                   l1238 1220                                     l1190 1002  
                                   l1344 1878                                     l1184 198C  
                                   l1176 1932                                     l1328 1634  
                                   l1280 143A                                     l1272 13C2  
                                   l1264 1386                                     l1256 131A  
                                   l1248 12A2                                     l1192 1036  
                                   l1346 1772                                     l1178 1946  
                                   l1290 14B4                                     l1282 1446  
                                   l1274 13CE                                     l1266 139E  
                                   l1258 1326                                     l1194 104C  
                                   l1188 1890                                     l1292 14C0  
                                   l1284 1452                                     l1276 1416  
                                   l1268 13AA                                     l1196 1058  
                                   l1294 14CC                                     l1286 145E  
                                   l1278 142E                                     l1198 1064  
                                   l1296 14D8                                     l1288 14A6  
                                   l1298 14E4                                     _LATA 0F89  
                                   _LATB 0F8A                                     _LATC 0F8B  
                                   _LATD 0F8C                                     _LATE 0F8D  
                ??_application_intialize 0039                                     _main 1002  
                                   fsr2h 0FDA                                     indf2 0FDF  
                                   fsr1l 0FE1                                     fsr2l 0FD9  
                                   prodl 0FF3                                     start 0000  
                           ___param_bank 0000                     _gpio_pin_write_logic 178A  
                                  ?_main 002F                                    _PORTA 0F80  
                                  _PORTB 0F81                                    _PORTC 0F82  
                                  _PORTD 0F83                                    _PORTE 0F84  
                                  _TRISA 0F92                                    _TRISB 0F93  
                                  _TRISC 0F94                                    _TRISD 0F95  
                                  _TRISE 0F96                                    _led_1 002E  
                                  _led_2 002D                                    _led_3 002C  
                                  _led_4 002B                                    _led_5 002A  
                                  _led_6 0029                                    _led_7 0028  
                                  _led_8 0027                                    _led_9 0026  
                                  tablat 0FF5                                    status 0FD8  
                        __initialization 19BE                             __end_of_main 166E  
                  ?_gpio_pin_write_logic 002F                            _lat_registers 000B  
                                 ??_main 0039                            __activetblptr 0002  
                                 _led_10 0025                                   _led_11 0024  
                                 _led_12 0023                                   _led_13 0022  
                                 _led_14 0021                                   _led_15 0020  
                                 _led_16 001F                                   isa$std 0001  
gpio_pin_direction_intialize@_pin_config 002F                             __pdataCOMRAM 0001  
                           __mediumconst 0000                                   tblptrh 0FF7  
                                 tblptrl 0FF6                                   tblptru 0FF8  
                             __accesstop 0080                  __end_of__initialization 19DE  
                          ___rparam_used 0001                   ??_gpio_pin_write_logic 0031  
                         __pcstackCOMRAM 002F                               __pnvCOMRAM 003B  
          __end_of_application_intialize 1932                           _tris_registers 0015  
                                __Hparam 0000                                  __Lparam 0000  
                           __psmallconst 1000               __end_of_gpio_pin_intialize 1990  
                                __pcinit 19BE                                  __ramtop 1000  
                                __ptext0 1002                                  __ptext1 1890  
                                __ptext2 1932                                  __ptext3 178A  
                                __ptext4 166E                     end_of_initialization 19DE  
                          __Lmediumconst 0000                    gpio_pin_intialize@ret 0038  
                                postdec1 0FE5                                  postdec2 0FDD  
                                postinc0 0FEE                                  postinc2 0FDE  
          gpio_pin_intialize@_pin_config 0036     __end_of_gpio_pin_direction_intialize 178A  
           _gpio_pin_direction_intialize 166E                            __pidataCOMRAM 1990  
                    start_initialization 19BE            ?_gpio_pin_direction_intialize 002F  
                  _application_intialize 1890          gpio_pin_write_logic@_pin_config 002F  
              gpio_pin_write_logic@logic 0030                              __smallconst 1000  
                     _gpio_pin_intialize 1932           ??_gpio_pin_direction_intialize 0030  
                    ?_gpio_pin_intialize 0036                     ??_gpio_pin_intialize 0037  
                              copy_data0 19D2                   ?_application_intialize 002F  
                               __Hrparam 0000                                 __Lrparam 0000  
                               isa$xinst 0000             __end_of_gpio_pin_write_logic 1890  
                         _port_registers 0001  
